 mvdsv

 Timestamp is 60c39978 (Fri Jun 11 13:12:24 2021)

 Preferred load address is 00400000

 Start         Length     Name                   Class
 0001:00000000 00063fcfH .text$mn                CODE
 0002:00000000 0000027cH .idata$5                DATA
 0002:0000027c 00000004H .00cfg                  DATA
 0002:00000280 00000004H .CRT$XCA                DATA
 0002:00000284 00000004H .CRT$XCAA               DATA
 0002:00000288 00000004H .CRT$XCZ                DATA
 0002:0000028c 00000004H .CRT$XIA                DATA
 0002:00000290 00000004H .CRT$XIAA               DATA
 0002:00000294 00000004H .CRT$XIAC               DATA
 0002:00000298 00000004H .CRT$XIZ                DATA
 0002:0000029c 00000004H .CRT$XPA                DATA
 0002:000002a0 00000004H .CRT$XPZ                DATA
 0002:000002a4 00000004H .CRT$XTA                DATA
 0002:000002a8 00000008H .CRT$XTZ                DATA
 0002:000002ac 00000000H .gfids$y                DATA
 0002:000002b0 0000b580H .rdata                  DATA
 0002:0000b830 00000290H .rdata$zzzdbg           DATA
 0002:0000bac0 00000004H .rtc$IAA                DATA
 0002:0000bac4 00000004H .rtc$IZZ                DATA
 0002:0000bac8 00000004H .rtc$TAA                DATA
 0002:0000bacc 00000004H .rtc$TZZ                DATA
 0002:0000bad0 0000003cH .xdata$x                DATA
 0002:0000bb0c 00000000H .edata                  DATA
 0002:0000bb0c 00000078H .idata$2                DATA
 0002:0000bb84 00000014H .idata$3                DATA
 0002:0000bb98 0000027cH .idata$4                DATA
 0002:0000be14 000008b6H .idata$6                DATA
 0003:00000000 00002760H .data                   DATA
 0003:00002760 02a26880H .bss                    DATA
 0004:00000000 00000120H .rsrc$01                DATA
 0004:00000120 00000558H .rsrc$02                DATA

  Address         Publics by Value              Rva+Base       Lib:Object

 0000:00000000       ___safe_se_handler_table   00000000     <absolute>
 0000:00000000       ___safe_se_handler_count   00000000     <absolute>
 0000:00000000       ___guard_iat_count         00000000     <absolute>
 0000:00000000       ___volatile_metadata       00000000     <absolute>
 0000:00000000       ___guard_fids_count        00000000     <absolute>
 0000:00000000       ___guard_longjmp_table     00000000     <absolute>
 0000:00000000       ___guard_iat_table         00000000     <absolute>
 0000:00000000       ___hybrid_code_map_count   00000000     <absolute>
 0000:00000000       ___enclave_config          00000000     <absolute>
 0000:00000000       ___guard_fids_table        00000000     <absolute>
 0000:00000000       ___guard_longjmp_count     00000000     <absolute>
 0000:00000000       ___hybrid_auxiliary_iat    00000000     <absolute>
 0000:00000000       ___hybrid_code_map         00000000     <absolute>
 0000:00000000       ___dynamic_value_reloc_table 00000000     <absolute>
 0000:00000100       ___guard_flags             00000100     <absolute>
 0000:00000000       ___ImageBase               00400000     <linker-defined>
 0001:00000000       ___local_stdio_printf_options 00401000 f i bothtools.obj
 0001:00000010       _snprintf                  00401010 f i central.obj
 0001:00000050       ___local_stdio_scanf_options 00401050 f i pr2_vm.obj
 0001:00000060       _sscanf                    00401060 f i pr2_vm.obj
 0001:00000090       _fprintf                   00401090 f i pr_edict.obj
 0001:000000c0       _fscanf                    004010c0 f i sv_login.obj
 0001:000000f0       _printf                    004010f0 f i sv_sys_win.obj
 0001:00000130       @__security_check_cookie@4 00401130 f   MSVCRTD:secchk.obj
 0001:00000150       ___raise_securityfailure   00401150 f   MSVCRTD:gs_report.obj
 0001:00000180       ___report_gsfailure        00401180 f   MSVCRTD:gs_report.obj
 0001:00000290       ___report_rangecheckfailure 00401290 f   MSVCRTD:gs_report.obj
 0001:000002a0       ___report_securityfailure  004012a0 f   MSVCRTD:gs_report.obj
 0001:00000690       ?configure_argv@__scrt_narrow_argv_policy@@SAHXZ 00401690 f i MSVCRTD:exe_main.obj
 0001:000006b0       ?initialize_environment@__scrt_narrow_environment_policy@@SAHXZ 004016b0 f i MSVCRTD:exe_main.obj
 0001:000006f0       ?set_app_type@__scrt_main_policy@@SAXXZ 004016f0 f i MSVCRTD:exe_main.obj
 0001:00000700       ?set_commode@__scrt_file_policy@@SAXXZ 00401700 f i MSVCRTD:exe_main.obj
 0001:00000720       ?set_fmode@__scrt_file_policy@@SAXXZ 00401720 f i MSVCRTD:exe_main.obj
 0001:00000740       _mainCRTStartup            00401740 f   MSVCRTD:exe_main.obj
 0001:00000750       ??$__crt_fast_decode_pointer@PAP6AXXZ@@YAPAP6AXXZQAP6AXXZ@Z 00401750 f i MSVCRTD:utility.obj
 0001:00000780       ??$__crt_fast_encode_pointer@PAP6AXXZ@@YAPAP6AXXZQAP6AXXZ@Z 00401780 f i MSVCRTD:utility.obj
 0001:000007b0       ?__crt_rotate_pointer_value@@YAIIH@Z 004017b0 f i MSVCRTD:utility.obj
 0001:000008c0       _NtCurrentTeb              004018c0 f i MSVCRTD:utility.obj
 0001:000008d0       ___scrt_acquire_startup_lock 004018d0 f   MSVCRTD:utility.obj
 0001:00000920       ___scrt_initialize_crt     00401920 f   MSVCRTD:utility.obj
 0001:00000970       ___scrt_initialize_onexit_tables 00401970 f   MSVCRTD:utility.obj
 0001:00000a50       ___scrt_is_nonwritable_in_current_image 00401a50 f   MSVCRTD:utility.obj
 0001:00000b80       ___scrt_release_startup_lock 00401b80 f   MSVCRTD:utility.obj
 0001:00000bb0       ___scrt_uninitialize_crt   00401bb0 f   MSVCRTD:utility.obj
 0001:00000bf0       __onexit                   00401bf0 f   MSVCRTD:utility.obj
 0001:00000c60       _atexit                    00401c60 f   MSVCRTD:utility.obj
 0001:00000d00       ___security_init_cookie    00401d00 f   MSVCRTD:gs_support.obj
 0001:00000d80       __get_startup_thread_locale_mode 00401d80 f   MSVCRTD:thread_locale.obj
 0001:00000d80       ___scrt_stub_for_initialize_mta 00401d80 f   MSVCRTD:utility_desktop.obj
 0001:00000d80       __matherr                  00401d80 f   MSVCRTD:matherr.obj
 0001:00000d80       __get_startup_commit_mode  00401d80 f   MSVCRTD:commit_mode.obj
 0001:00000d80       __get_startup_new_mode     00401d80 f   MSVCRTD:new_mode.obj
 0001:00000d80       ___scrt_initialize_winrt   00401d80 f   MSVCRTD:utility_desktop.obj
 0001:00000d80       ___scrt_exe_initialize_mta 00401d80 f   MSVCRTD:utility_desktop.obj
 0001:00000d90       __get_startup_argv_mode    00401d90 f   MSVCRTD:argv_mode.obj
 0001:00000da0       __get_startup_file_mode    00401da0 f   MSVCRTD:file_mode.obj
 0001:00000db0       ?__scrt_initialize_type_info@@YAXXZ 00401db0 f   MSVCRTD:tncleanup.obj
 0001:00000dc0       __should_initialize_environment 00401dc0 f   MSVCRTD:env_mode.obj
 0001:00000dc0       ___vcrt_uninitialize       00401dc0 f   MSVCRTD:ucrt_stubs.obj
 0001:00000dc0       ___vcrt_initialize         00401dc0 f   MSVCRTD:ucrt_stubs.obj
 0001:00000dc0       ___acrt_uninitialize       00401dc0 f   MSVCRTD:ucrt_stubs.obj
 0001:00000dc0       ___scrt_stub_for_acrt_initialize 00401dc0 f   MSVCRTD:ucrt_stubs.obj
 0001:00000dc0       ___scrt_stub_for_acrt_uninitialize 00401dc0 f   MSVCRTD:ucrt_stubs.obj
 0001:00000dc0       ___acrt_initialize         00401dc0 f   MSVCRTD:ucrt_stubs.obj
 0001:00000dd0       __initialize_default_precision 00401dd0 f   MSVCRTD:default_precision.obj
 0001:00000e00       __initialize_denormal_control 00401e00 f   MSVCRTD:denormal_control.obj
 0001:00000e00       __initialize_invalid_parameter_handler 00401e00 f   MSVCRTD:invalid_parameter_handler.obj
 0001:00000e10       ___scrt_initialize_default_local_stdio_options 00401e10 f   MSVCRTD:default_local_stdio_options.obj
 0001:00000e50       ___scrt_is_user_matherr_present 00401e50 f   MSVCRTD:matherr_detection.obj
 0001:00000e80       ___scrt_get_dyn_tls_init_callback 00401e80 f   MSVCRTD:dyn_tls_init.obj
 0001:00000e90       ___scrt_get_dyn_tls_dtor_callback 00401e90 f   MSVCRTD:dyn_tls_dtor.obj
 0001:00000ea0       ___scrt_fastfail           00401ea0 f   MSVCRTD:utility_desktop.obj
 0001:00000fe0       ___scrt_initialize_mta     00401fe0 f   MSVCRTD:utility_desktop.obj
 0001:00000ff0       ___scrt_is_managed_app     00401ff0 f   MSVCRTD:utility_desktop.obj
 0001:00001080       ___scrt_set_unhandled_exception_filter 00402080 f   MSVCRTD:utility_desktop.obj
 0001:00001090       ___scrt_unhandled_exception_filter@4 00402090 f   MSVCRTD:utility_desktop.obj
 0001:000010f0       __crt_debugger_hook        004020f0 f   MSVCRTD:utility_desktop.obj
 0001:00001100       __RTC_Initialize           00402100 f   MSVCRTD:initsect.obj
 0001:00001130       __RTC_Terminate            00402130 f   MSVCRTD:initsect.obj
 0001:00001160       __except_handler4          00402160 f   MSVCRTD:chandler4gs.obj
 0001:00001190       @_guard_check_icall_nop@4  00402190 f i MSVCRTD:guard_support.obj
 0001:000011a0       ___isa_available_init      004021a0 f   MSVCRTD:cpu_disp.obj
 0001:00001480       ___scrt_is_ucrt_dll_in_use 00402480 f   MSVCRTD:ucrt_detection.obj
 0001:000014a4       _memset                    004024a4 f   vcruntimed:VCRUNTIME140D.dll
 0001:000014aa       __except_handler4_common   004024aa f   vcruntimed:VCRUNTIME140D.dll
 0001:000014b0       _malloc                    004024b0 f   ucrtd:ucrtbased.dll
 0001:000014b6       _free                      004024b6 f   ucrtd:ucrtbased.dll
 0001:000014bc       _exit                      004024bc f   ucrtd:ucrtbased.dll
 0001:000014c2       __seh_filter_exe           004024c2 f   ucrtd:ucrtbased.dll
 0001:000014c8       __set_app_type             004024c8 f   ucrtd:ucrtbased.dll
 0001:000014ce       ___setusermatherr          004024ce f   ucrtd:ucrtbased.dll
 0001:000014d4       __configure_narrow_argv    004024d4 f   ucrtd:ucrtbased.dll
 0001:000014da       __initialize_narrow_environment 004024da f   ucrtd:ucrtbased.dll
 0001:000014e0       __get_initial_narrow_environment 004024e0 f   ucrtd:ucrtbased.dll
 0001:000014e6       __initterm                 004024e6 f   ucrtd:ucrtbased.dll
 0001:000014ec       __initterm_e               004024ec f   ucrtd:ucrtbased.dll
 0001:000014f2       __exit                     004024f2 f   ucrtd:ucrtbased.dll
 0001:000014f8       __set_fmode                004024f8 f   ucrtd:ucrtbased.dll
 0001:000014fe       ___p___argc                004024fe f   ucrtd:ucrtbased.dll
 0001:00001504       ___p___argv                00402504 f   ucrtd:ucrtbased.dll
 0001:0000150a       __cexit                    0040250a f   ucrtd:ucrtbased.dll
 0001:00001510       __c_exit                   00402510 f   ucrtd:ucrtbased.dll
 0001:00001516       __register_thread_local_exe_atexit_callback 00402516 f   ucrtd:ucrtbased.dll
 0001:0000151c       __configthreadlocale       0040251c f   ucrtd:ucrtbased.dll
 0001:00001522       __set_new_mode             00402522 f   ucrtd:ucrtbased.dll
 0001:00001528       ___p__commode              00402528 f   ucrtd:ucrtbased.dll
 0001:0000152e       __initialize_onexit_table  0040252e f   ucrtd:ucrtbased.dll
 0001:00001534       __register_onexit_function 00402534 f   ucrtd:ucrtbased.dll
 0001:0000153a       __crt_atexit               0040253a f   ucrtd:ucrtbased.dll
 0001:00001540       __controlfp_s              00402540 f   ucrtd:ucrtbased.dll
 0001:00001546       _terminate                 00402546 f   ucrtd:ucrtbased.dll
 0001:0000154c       _IsProcessorFeaturePresent@4 0040254c f   kernel32:KERNEL32.dll
 0001:00001560       _wildcmp                   00402560 f   bothtools.obj
 0001:000015f0       _AdjustAngle               004025f0 f   bothtools.obj
 0001:00001640       _COM_DefaultExtension      00402640 f   bothtools.obj
 0001:000016c0       _COM_StripExtension        004026c0 f   bothtools.obj
 0001:000016e0       _Q_strdup                  004026e0 f   bothtools.obj
 0001:00001710       _Q_calloc                  00402710 f   bothtools.obj
 0001:00001730       _Q_malloc                  00402730 f   bothtools.obj
 0001:00001770       _LongSwap                  00402770 f   bothtools.obj
 0001:000017a0       _ShortSwap                 004027a0 f   bothtools.obj
 0001:000017c0       _strlcat                   004027c0 f   bothtools.obj
 0001:00001830       _strlcpy                   00402830 f   bothtools.obj
 0001:00001870       _Q_atof                    00402870 f   bothtools.obj
 0001:00001a80       _Q_atoi                    00402a80 f   bothtools.obj
 0001:00001b70       _va                        00402b70 f   bothtools.obj
 0001:00001bd0       _Central_Init              00402bd0 f   central.obj
 0001:00001c40       _Central_Shutdown          00402c40 f   central.obj
 0001:00001c70       _Central_ProcessResponses  00402c70 f   central.obj
 0001:00002650       _Central_GenerateChallenge 00403650 f   central.obj
 0001:00002750       _Central_VerifyChallengeResponse 00403750 f   central.obj
 0001:00002960       _Web_PostResponse          00403960 f   central.obj
 0001:00002c00       _Auth_ProcessLoginAttempt  00403c00 f   central.obj
 0001:00002fb0       _Auth_GenerateChallengeResponse 00403fb0 f   central.obj
 0001:00003340       _Web_StandardTokenWrite    00404340 f   central.obj
 0001:00003430       _Cmd_Init                  00404430 f   cmd.obj
 0001:000034b0       _Cmd_If_f                  004044b0 f   cmd.obj
 0001:00003d00       _Cmd_ExecuteString         00404d00 f   cmd.obj
 0001:00004120       _Cmd_ExpandString          00405120 f   cmd.obj
 0001:00004520       _Cmd_Exists                00405520 f   cmd.obj
 0001:00004590       _Cmd_TokenizeString        00405590 f   cmd.obj
 0001:00004680       _Cmd_Args                  00405680 f   cmd.obj
 0001:000046a0       _Cmd_UnAliasAll_f          004056a0 f   cmd.obj
 0001:00004720       _Cmd_UnAlias_f             00405720 f   cmd.obj
 0001:00004870       _Cmd_DeleteAlias           00405870 f   cmd.obj
 0001:00004960       _Cmd_Alias_f               00405960 f   cmd.obj
 0001:00004be0       _Cmd_Echo_f                00405be0 f   cmd.obj
 0001:00004c30       _Cmd_Exec_f                00405c30 f   cmd.obj
 0001:00004db0       _Cmd_StuffCmds_f           00405db0 f   cmd.obj
 0001:000050b0       _Cbuf_ExecuteEx            004060b0 f   cmd.obj
 0001:00005260       _Cbuf_InsertTextEx         00406260 f   cmd.obj
 0001:00005330       _Cbuf_AddTextEx            00406330 f   cmd.obj
 0001:000053f0       _Cbuf_Init                 004063f0 f   cmd.obj
 0001:00005410       _Cbuf_Execute              00406410 f   cmd.obj
 0001:000055c0       _Cbuf_InsertText           004065c0 f   cmd.obj
 0001:00005690       _Cbuf_AddText              00406690 f   cmd.obj
 0001:00005750       _Cmd_Wait_f                00406750 f   cmd.obj
 0001:00005770       _Cmd_AddCommand            00406770 f   cmd.obj
 0001:00005830       _Cmd_Argc                  00406830 f   cmd.obj
 0001:00005840       _Cmd_Argv                  00406840 f   cmd.obj
 0001:00005860       _CM_Init                   00406860 f   cmodel.obj
 0001:000059c0       _CM_InlineModel            004069c0 f   cmodel.obj
 0001:00005a10       _CM_LoadMap                00406a10 f   cmodel.obj
 0001:00006570       _CM_InvalidateMap          00407570 f   cmodel.obj
 0001:000076f0       _CM_FindTouchedLeafs       004086f0 f   cmodel.obj
 0001:00007b20       _CM_FatPVS                 00408b20 f   cmodel.obj
 0001:00007d00       _CM_LeafPHS                00408d00 f   cmodel.obj
 0001:00007d40       _CM_LeafPVS                00408d40 f   cmodel.obj
 0001:00007d80       _CM_PointInLeaf            00408d80 f   cmodel.obj
 0001:00007e00       _CM_Leafnum                00408e00 f   cmodel.obj
 0001:00007e20       _CM_EntityString           00408e20 f   cmodel.obj
 0001:00007e30       _CM_NumInlineModels        00408e30 f   cmodel.obj
 0001:00007e40       _CM_HullTrace              00408e40 f   cmodel.obj
 0001:00007f20       _RecursiveHullTrace        00408f20 f   cmodel.obj
 0001:00008360       _CM_HullPointContents      00409360 f   cmodel.obj
 0001:00008410       _CM_HullForBox             00409410 f   cmodel.obj
 0001:000085c0       _Q_namecmp                 004095c0 f   common.obj
 0001:00008640       _COM_FileExists            00409640 f   common.obj
 0001:00008670       _Com_TranslateMapChecksum  00409670 f   common.obj
 0001:000086d0       _Q_yelltext                004096d0 f   common.obj
 0001:00008710       _Q_redtext                 00409710 f   common.obj
 0001:00008740       _Q_normalizetext           00409740 f   common.obj
 0001:00008a00       _COM_BlockSequenceCRCByte  00409a00 f   common.obj
 0001:00008ac0       _Info_CopyStar             00409ac0 f   common.obj
 0001:00008b10       _Info_ReverseConvert       00409b10 f   common.obj
 0001:00008bb0       _Info_Convert              00409bb0 f   common.obj
 0001:00008ce0       _Info_RemoveAll            00409ce0 f   common.obj
 0001:00008d60       _Info_Remove               00409d60 f   common.obj
 0001:00008e90       _Info_Set                  00409e90 f   common.obj
 0001:00008f60       _Info_Print                00409f60 f   common.obj
 0001:00009080       _Info_SetValueForKey       0040a080 f   common.obj
 0001:000090a0       _Info_SetValueForStarKey   0040a0a0 f   common.obj
 0001:000092c0       _Info_RemovePrefixedKeys   0040a2c0 f   common.obj
 0001:00009390       _Info_RemoveKey            0040a390 f   common.obj
 0001:000094c0       _Info_ValueForKey          0040a4c0 f   common.obj
 0001:000095b0       _COM_Argv                  0040a5b0 f   common.obj
 0001:000095d0       _COM_Argc                  0040a5d0 f   common.obj
 0001:000095e0       _COM_CheckParm             0040a5e0 f   common.obj
 0001:00009650       _COM_InitArgv              0040a650 f   common.obj
 0001:000096b0       _COM_ParseToken            0040a6b0 f   common.obj
 0001:000097e0       _SZ_Print                  0040a7e0 f   common.obj
 0001:00009830       _SZ_Write                  0040a830 f   common.obj
 0001:00009850       _SZ_GetSpace               0040a850 f   common.obj
 0001:000098c0       _SZ_Clear                  0040a8c0 f   common.obj
 0001:000098d0       _SZ_Init                   0040a8d0 f   common.obj
 0001:000098f0       _SZ_InitEx                 0040a8f0 f   common.obj
 0001:00009910       _MSG_ReadSkip              0040a910 f   common.obj
 0001:00009940       _MSG_ReadData              0040a940 f   common.obj
 0001:00009990       _MSG_ReadDeltaUsercmd      0040a990 f   common.obj
 0001:00009c40       _MSG_ReadAngle16           0040ac40 f   common.obj
 0001:00009ca0       _MSG_ReadCoord             0040aca0 f   common.obj
 0001:00009d00       _MSG_ReadStringLine        0040ad00 f   common.obj
 0001:00009d80       _MSG_ReadString            0040ad80 f   common.obj
 0001:00009e00       _MSG_ReadLong              0040ae00 f   common.obj
 0001:00009e60       _MSG_ReadShort             0040ae60 f   common.obj
 0001:00009eb0       _MSG_ReadByte              0040aeb0 f   common.obj
 0001:00009ee0       _MSG_GetReadCount          0040aee0 f   common.obj
 0001:00009ef0       _MSG_BeginReading          0040aef0 f   common.obj
 0001:00009f10       _MSG_WriteDeltaUsercmd     0040af10 f   common.obj
 0001:0000a1a0       _MSG_WriteAngle16          0040b1a0 f   common.obj
 0001:0000a1f0       _MSG_WriteAngle            0040b1f0 f   common.obj
 0001:0000a2a0       _MSG_WriteLongCoord        0040b2a0 f   common.obj
 0001:0000a2c0       _MSG_WriteCoord            0040b2c0 f   common.obj
 0001:0000a360       _MSG_WriteString           0040b360 f   common.obj
 0001:0000a3b0       _MSG_WriteFloat            0040b3b0 f   common.obj
 0001:0000a3d0       _MSG_WriteLong             0040b3d0 f   common.obj
 0001:0000a400       _MSG_WriteShort            0040b400 f   common.obj
 0001:0000a420       _MSG_WriteByte             0040b420 f   common.obj
 0001:0000a440       _MSG_WriteChar             0040b440 f   common.obj
 0001:0000a460       _MSG_ToCoord               0040b460 f   common.obj
 0001:0000a4e0       _MSG_FromCoord             0040b4e0 f   common.obj
 0001:0000a520       _COM_Parse                 0040b520 f   common.obj
 0001:0000a600       _Q_glob_match              0040b600 f   common.obj
 0001:0000a700       _Com_HashKey               0040b700 f   common.obj
 0001:0000a740       _Info_SetStar              0040b740 f   common.obj
 0001:0000a9e0       _Info_Get                  0040b9e0 f   common.obj
 0001:0000aa80       _CRC_AddBlock              0040ba80 f   crc.obj
 0001:0000aac0       _CRC_ProcessByte           0040bac0 f   crc.obj
 0001:0000aae0       _CRC_Init                  0040bae0 f   crc.obj
 0001:0000aaf0       _CRC_Block                 0040baf0 f   crc.obj
 0001:0000ab30       _Cvar_Init                 0040bb30 f   cvar.obj
 0001:0000ab80       _Cvar_Inc_f                0040bb80 f   cvar.obj
 0001:0000ac30       _Cvar_Set_f                0040bc30 f   cvar.obj
 0001:0000acc0       _Cvar_Create               0040bcc0 f   cvar.obj
 0001:0000af50       _Cvar_Toggle_f             0040bf50 f   cvar.obj
 0001:0000afc0       _Cvar_SetValueByName       0040bfc0 f   cvar.obj
 0001:0000b040       _Cvar_SetValue             0040c040 f   cvar.obj
 0001:0000b1c0       _Cvar_SetByName            0040c1c0 f   cvar.obj
 0001:0000b1f0       _Cvar_Set                  0040c1f0 f   cvar.obj
 0001:0000b2f0       _Cvar_String               0040c2f0 f   cvar.obj
 0001:0000b310       _Cvar_Value                0040c310 f   cvar.obj
 0001:0000b330       _Cvar_GetFlags             0040c330 f   cvar.obj
 0001:0000b340       _Cvar_Next                 0040c340 f   cvar.obj
 0001:0000b350       _Cvar_SetROM               0040c350 f   cvar.obj
 0001:0000b370       _Cvar_Find                 0040c370 f   cvar.obj
 0001:0000b3d0       _Cvar_Command              0040c3d0 f   cvar.obj
 0001:0000b510       _Cvar_Register             0040c510 f   cvar.obj
 0001:0000b5f0       _FS_NextPath               0040c5f0 f   fs.obj
 0001:0000b7c0       _FS_CreatePath             0040c7c0 f   fs.obj
 0001:0000b810       _FS_FileLength             0040c810 f   fs.obj
 0001:0000b850       _VFS_COPYPROTECTED         0040c850 f   fs.obj
 0001:0000b860       _VFS_WRITE                 0040c860 f   fs.obj
 0001:0000b890       _VFS_READ                  0040c890 f   fs.obj
 0001:0000b8c0       _VFS_SEEK                  0040c8c0 f   fs.obj
 0001:0000b8f0       _VFS_GETLEN                0040c8f0 f   fs.obj
 0001:0000b910       _VFS_TELL                  0040c910 f   fs.obj
 0001:0000b930       _VFS_CLOSE                 0040c930 f   fs.obj
 0001:0000b950       _VFS_CHECKCALL             0040c950 f   fs.obj
 0001:0000b970       _FS_OpenVFS                0040c970 f   fs.obj
 0001:0000bc50       _FS_ShutDown               0040cc50 f   fs.obj
 0001:0000bcb0       _FS_Init                   0040ccb0 f   fs.obj
 0001:0000bce0       _FS_InitEx                 0040cce0 f   fs.obj
 0001:0000bf10       _FS_InitModule             0040cf10 f   fs.obj
 0001:0000bf30       _FS_SetGamedir             0040cf30 f   fs.obj
 0001:0000c6a0       _FS_FLocateFile            0040d6a0 f   fs.obj
 0001:0000c920       _FS_FlushFSHash            0040d920 f   fs.obj
 0001:0000cac0       _FS_FileBase               0040dac0 f   fs.obj
 0001:0000cb80       _FS_LoadTempFile           0040db80 f   fs.obj
 0001:0000cba0       _FS_LoadHunkFile           0040dba0 f   fs.obj
 0001:0000cbc0       _FS_UnsafeFilename         0040dbc0 f   fs.obj
 0001:0000cbf0       _Hash_AddInsensitive       0040dbf0 f   hash.obj
 0001:0000cc80       _Hash_KeyInsensitive       0040dc80 f   hash.obj
 0001:0000ccd0       _Hash_Flush                0040dcd0 f   hash.obj
 0001:0000cd40       _Hash_GetInsensitive       0040dd40 f   hash.obj
 0001:0000cd90       _Hash_InitTable            0040dd90 f   hash.obj
 0001:0000ce00       _FSOS_ReadFile             0040de00 f   vfs_os.obj
 0001:0000d060       _FSOS_OpenVFS              0040e060 f   vfs_os.obj
 0001:0000d1e0       _VFSOS_Open                0040e1e0 f   vfs_os.obj
 0001:0000db90       _VectorNormalize           0040eb90 f   mathlib.obj
 0001:0000dc30       _VectorLength              0040ec30 f   mathlib.obj
 0001:0000dc70       _CrossProduct              0040ec70 f   mathlib.obj
 0001:0000dcd0       _VectorMA                  0040ecd0 f   mathlib.obj
 0001:0000dd10       _AngleVectors              0040ed10 f   mathlib.obj
 0001:0000dee0       _BOPS_Error                0040eee0 f   mathlib.obj
 0001:0000def0       _RotatePointAroundVector   0040eef0 f   mathlib.obj
 0001:0000e330       _VectorVectors             0040f330 f   mathlib.obj
 0001:0000e4d0       _PerpendicularVector       0040f4d0 f   mathlib.obj
 0001:0000e5f0       _anglemod                  0040f5f0 f   mathlib.obj
 0001:0000e620       _BoxOnPlaneSide            0040f620 f   mathlib.obj
 0001:0000e8f0       _Com_BlockFullChecksum     0040f8f0 f   md4.obj
 0001:0000eeb0       _MD4Final                  0040feb0 f   md4.obj
 0001:0000ef90       _MD4Update                 0040ff90 f   md4.obj
 0001:0000f040       _MD4Init                   00410040 f   md4.obj
 0001:0000f070       _Com_BlockChecksum         00410070 f   md4.obj
 0001:0000f0f0       _NET_CloseServer           004100f0 f   net.obj
 0001:0000f150       _NET_InitServer            00410150 f   net.obj
 0001:0000f390       _NET_InitServer_TCP        00410390 f   net.obj
 0001:0000f410       _NET_Init                  00410410 f   net.obj
 0001:0000f490       _NET_GetLocalAddress       00410490 f   net.obj
 0001:0000f5c0       _NET_Sleep                 004105c0 f   net.obj
 0001:0000f660       _UDP_OpenSocket            00410660 f   net.obj
 0001:0000f7e0       _TCP_OpenListenSocket      004107e0 f   net.obj
 0001:0000f9b0       _TCP_Set_KEEPALIVE         004109b0 f   net.obj
 0001:0000fa20       _NET_SendPacket            00410a20 f   net.obj
 0001:0000fa50       _NET_SendPacketEx          00410a50 f   net.obj
 0001:0000fcb0       _NET_SendUDPPacket         00410cb0 f   net.obj
 0001:0000fdb0       _NET_SendTCPPacket_SV      00410db0 f   net.obj
 0001:0000ff60       _NET_GetPacket             00410f60 f   net.obj
 0001:00010100       _NET_GetPacketEx           00411100 f   net.obj
 0001:00010130       _NET_GetTCPPacket_SV       00411130 f   net.obj
 0001:00010440       _NET_GetUDPPacket          00411440 f   net.obj
 0001:000105e0       _sv_tcp_connection_count   004115e0 f   net.obj
 0001:00010660       _sv_tcp_connection_new     00411660 f   net.obj
 0001:00010710       _NET_StringToAdr           00411710 f   net.obj
 0001:00010870       _NET_BaseAdrToString       00411870 f   net.obj
 0001:00010910       _NET_AdrToString           00411910 f   net.obj
 0001:000109b0       _NET_CompareAdr            004119b0 f   net.obj
 0001:00010a60       _NET_CompareBaseAdr        00411a60 f   net.obj
 0001:00010af0       _SockadrToNetadr           00411af0 f   net.obj
 0001:00010b10       _NetadrToSockadr           00411b10 f   net.obj
 0001:00010b30       _NET_GetSocket             00411b30 f   net.obj
 0001:00010b50       _NET_UDPSVPort             00411b50 f   net.obj
 0001:00010b80       _Netchan_Process           00411b80 f   net_chan.obj
 0001:00010df0       _Netchan_Transmit          00411df0 f   net_chan.obj
 0001:000110f0       _Netchan_CanReliable       004120f0 f   net_chan.obj
 0001:00011120       _Netchan_CanPacket         00412120 f   net_chan.obj
 0001:00011140       _Netchan_Setup             00412140 f   net_chan.obj
 0001:000111f0       _Netchan_OutOfBandPrint    004121f0 f   net_chan.obj
 0001:00011280       _Netchan_OutOfBand         00412280 f   net_chan.obj
 0001:00011330       _Netchan_Init              00412330 f   net_chan.obj
 0001:00011350       _PM_PlayerMove             00412350 f   pmove.obj
 0001:00012ca0       _PM_CategorizePosition     00413ca0 f   pmove.obj
 0001:00014bc0       _PM_PointContents_AllBSPs  00415bc0 f   pmovetst.obj
 0001:00014d50       _PM_TestPlayerPosition     00415d50 f   pmovetst.obj
 0001:00014ee0       _PM_PointContents          00415ee0 f   pmovetst.obj
 0001:00014f00       _PM_PlayerTrace            00415f00 f   pmovetst.obj
 0001:00015560       _PR2_InitProg              00416560 f   pr2_cmds.obj
 0001:00015740       _sv_sys_callex             00416740 f   pr2_cmds.obj
 0001:00015780       _sv_syscall                00416780 f   pr2_cmds.obj
 0001:00015830       _PF2_SetUserInfo           00416830 f   pr2_cmds.obj
 0001:00015c30       _PF2_setpause              00416c30 f   pr2_cmds.obj
 0001:00015c50       _PF2_makevectors           00416c50 f   pr2_cmds.obj
 0001:00015cd0       _PF2_QVMstrftime           00416cd0 f   pr2_cmds.obj
 0001:00015e00       _PF2_SetBotCMD             00416e00 f   pr2_cmds.obj
 0001:00015ef0       _PF2_SetBotUserInfo        00416ef0 f   pr2_cmds.obj
 0001:00016130       _PF2_Remove_Bot            00417130 f   pr2_cmds.obj
 0001:00016180       _RemoveBot                 00417180 f   pr2_cmds.obj
 0001:00016220       _PF2_Add_Bot               00417220 f   pr2_cmds.obj
 0001:000168a0       _PF2_strlcat               004178a0 f   pr2_cmds.obj
 0001:00016950       _PF2_strlcpy               00417950 f   pr2_cmds.obj
 0001:00016a30       _PF2_strnicmp              00417a30 f   pr2_cmds.obj
 0001:00016ae0       _PF2_stricmp               00417ae0 f   pr2_cmds.obj
 0001:00016b90       _PF2_strncmp               00417b90 f   pr2_cmds.obj
 0001:00016c40       _PF2_strcmp                00417c40 f   pr2_cmds.obj
 0001:00016d10       _PF2_Map_Extension         00417d10 f   pr2_cmds.obj
 0001:00016d30       _PF2_FS_GetFileList        00417d30 f   pr2_cmds.obj
 0001:000170f0       _PR2_FS_Restart            004180f0 f   pr2_cmds.obj
 0001:00017170       _PF2_FS_ReadFile           00418170 f   pr2_cmds.obj
 0001:000171e0       _PF2_FS_WriteFile          004181e0 f   pr2_cmds.obj
 0001:00017260       _PF2_FS_TellFile           00418260 f   pr2_cmds.obj
 0001:000172a0       _PF2_FS_SeekFile           004182a0 f   pr2_cmds.obj
 0001:000172f0       _PF2_FS_CloseFile          004182f0 f   pr2_cmds.obj
 0001:00017330       _PF2_FS_OpenFile           00418330 f   pr2_cmds.obj
 0001:000175a0       _PF2_acos                  004185a0 f   pr2_cmds.obj
 0001:000175c0       _PF2_ceil                  004185c0 f   pr2_cmds.obj
 0001:000175f0       _PF2_floor                 004185f0 f   pr2_cmds.obj
 0001:00017620       _PF2_sqrt                  00418620 f   pr2_cmds.obj
 0001:00017650       _PF2_atan2                 00418650 f   pr2_cmds.obj
 0001:00017690       _PF2_cos                   00418690 f   pr2_cmds.obj
 0001:000176b0       _PF2_sin                   004186b0 f   pr2_cmds.obj
 0001:000176d0       _PF2_strncpy               004186d0 f   pr2_cmds.obj
 0001:00017780       _PF2_memcpy                00418780 f   pr2_cmds.obj
 0001:00017830       _PF2_memset                00418830 f   pr2_cmds.obj
 0001:000178a0       _PF2_fixme                 004188a0 f   pr2_cmds.obj
 0001:000178b0       _PF2_tokenize              004188b0 f   pr2_cmds.obj
 0001:00017910       _PF2_cmdargs               00418910 f   pr2_cmds.obj
 0001:000179b0       _PF2_cmdargv               004189b0 f   pr2_cmds.obj
 0001:00017a60       _PF2_cmdargc               00418a60 f   pr2_cmds.obj
 0001:00017a70       _PR2_FlushSignon           00418a70 f   pr2_cmds.obj
 0001:00017a80       _PF2_disable_updates       00418a80 f   pr2_cmds.obj
 0001:00017ac0       _PF2_multicast             00418ac0 f   pr2_cmds.obj
 0001:00017b00       _PF2_infokey               00418b00 f   pr2_cmds.obj
 0001:00018150       _PF2_logfrag               00419150 f   pr2_cmds.obj
 0001:00018270       _PF2_changelevel           00419270 f   pr2_cmds.obj
 0001:000184a0       _PF2_setspawnparms         004194a0 f   pr2_cmds.obj
 0001:00018520       _PF2_makestatic            00419520 f   pr2_cmds.obj
 0001:000185f0       _PF2_WriteEntity           004195f0 f   pr2_cmds.obj
 0001:000186a0       _PF2_WriteString           004196a0 f   pr2_cmds.obj
 0001:000187c0       _PF2_WriteCoord            004197c0 f   pr2_cmds.obj
 0001:00018870       _PF2_WriteAngle            00419870 f   pr2_cmds.obj
 0001:00018920       _PF2_WriteLong             00419920 f   pr2_cmds.obj
 0001:000189f0       _PF2_WriteShort            004199f0 f   pr2_cmds.obj
 0001:00018aa0       _PF2_WriteChar             00419aa0 f   pr2_cmds.obj
 0001:00018b40       _PF2_WriteByte             00419b40 f   pr2_cmds.obj
 0001:00018c40       _WriteDest2                00419c40 f   pr2_cmds.obj
 0001:00018cb0       _PF2_Find                  00419cb0 f   pr2_cmds.obj
 0001:00018e80       _PF2_nextclient            00419e80 f   pr2_cmds.obj
 0001:00018f80       _PF2_nextent               00419f80 f   pr2_cmds.obj
 0001:00018ff0       _PF2_pointcontents         00419ff0 f   pr2_cmds.obj
 0001:00019060       _PF2_checkbottom           0041a060 f   pr2_cmds.obj
 0001:000190a0       _PF2_lightstyle            0041a0a0 f   pr2_cmds.obj
 0001:00019230       _PF2_droptofloor           0041a230 f   pr2_cmds.obj
 0001:00019390       _PF2_MoveToGoal            0041a390 f   pr2_cmds.obj
 0001:00019480       _PF2_walkmove              0041a480 f   pr2_cmds.obj
 0001:00019580       _PF2_FindRadius            0041a580 f   pr2_cmds.obj
 0001:000197f0       _PF2_cvar_set_float        0041a7f0 f   pr2_cmds.obj
 0001:000198d0       _PF2_cvar_set              0041a8d0 f   pr2_cmds.obj
 0001:00019990       _PF2_cvar_string           0041a990 f   pr2_cmds.obj
 0001:00019a00       _PF2_cvar                  0041aa00 f   pr2_cmds.obj
 0001:00019a80       _PF2_redirectcmd           0041aa80 f   pr2_cmds.obj
 0001:0001a070       _PF2_readcmd               0041b070 f   pr2_cmds.obj
 0001:0001a5a0       _PF2_executecmd            0041b5a0 f   pr2_cmds.obj
 0001:0001a770       _PF2_localcmd              0041b770 f   pr2_cmds.obj
 0001:0001a870       _PF2_stuffcmd              0041b870 f   pr2_cmds.obj
 0001:0001ab10       _PF2_checkclient           0041bb10 f   pr2_cmds.obj
 0001:0001ade0       _PF2_newcheckclient        0041bde0 f   pr2_cmds.obj
 0001:0001af60       _PF2_TraceCapsule          0041bf60 f   pr2_cmds.obj
 0001:0001b160       _PF2_traceline             0041c160 f   pr2_cmds.obj
 0001:0001b340       _PF2_sound                 0041c340 f   pr2_cmds.obj
 0001:0001b3f0       _PF2_ambientsound          0041c3f0 f   pr2_cmds.obj
 0001:0001b8a0       _PF2_centerprint           0041c8a0 f   pr2_cmds.obj
 0001:0001ba20       _PF2_sprint                0041ca20 f   pr2_cmds.obj
 0001:0001bb50       _PF2_bprint                0041cb50 f   pr2_cmds.obj
 0001:0001bbc0       _PF2_setmodel              0041cbc0 f   pr2_cmds.obj
 0001:0001bd80       _PF2_setsize               0041cd80 f   pr2_cmds.obj
 0001:0001be30       _PF2_setorigin             0041ce30 f   pr2_cmds.obj
 0001:0001beb0       _PF2_precache_vwep_model   0041ceb0 f   pr2_cmds.obj
 0001:0001bfb0       _PF2_precache_model        0041cfb0 f   pr2_cmds.obj
 0001:0001c090       _PF2_precache_sound        0041d090 f   pr2_cmds.obj
 0001:0001c170       _PF2_Remove                0041d170 f   pr2_cmds.obj
 0001:0001c1b0       _PF2_Spawn                 0041d1b0 f   pr2_cmds.obj
 0001:0001c1f0       _PF2_Error                 0041d1f0 f   pr2_cmds.obj
 0001:0001c250       _PF2_conprint              0041d250 f   pr2_cmds.obj
 0001:0001c2b0       _PF2_DPrint                0041d2b0 f   pr2_cmds.obj
 0001:0001c310       _PF2_GetEntityToken        0041d310 f   pr2_cmds.obj
 0001:0001c3c0       _PF2_GetApiVersion         0041d3c0 f   pr2_cmds.obj
 0001:0001c3d0       _PR2_CheckEmptyString      0041d3d0 f   pr2_cmds.obj
 0001:0001c3f0       _PR2_RunError              0041d3f0 f   pr2_cmds.obj
 0001:0001c4b0       _ED2_PrintEdicts           0041d4b0 f   pr2_edict.obj
 0001:0001c4d0       _ED2_PrintEdict_f          0041d4d0 f   pr2_edict.obj
 0001:0001c4f0       _ED2_FindFieldOffset       0041d4f0 f   pr2_edict.obj
 0001:0001c570       _PR2_GetEdictFieldValue    0041d570 f   pr2_edict.obj
 0001:0001c6b0       _PR2_ClearEdict            0041d6b0 f   pr2_exec.obj
 0001:0001c700       _PR2_PausedTic             0041d700 f   pr2_exec.obj
 0001:0001c750       _PR2_GameConsoleCommand    0041d750 f   pr2_exec.obj
 0001:0001c840       _PR2_LoadProgs             0041d840 f   pr2_exec.obj
 0001:0001c870       _PR2_UnLoadProgs           0041d870 f   pr2_exec.obj
 0001:0001c8b0       _PR2_GameShutDown          0041d8b0 f   pr2_exec.obj
 0001:0001c8d0       _PR2_EdictBlocked          0041d8d0 f   pr2_exec.obj
 0001:0001c900       _PR2_EdictThink            0041d900 f   pr2_exec.obj
 0001:0001c930       _PR2_EdictTouch            0041d930 f   pr2_exec.obj
 0001:0001c960       _PR2_GameSetChangeParms    0041d960 f   pr2_exec.obj
 0001:0001c9a0       _PR2_GameSetNewParms       0041d9a0 f   pr2_exec.obj
 0001:0001c9e0       _PR2_ClientSay             0041d9e0 f   pr2_exec.obj
 0001:0001cac0       _PR2_ClientKill            0041dac0 f   pr2_exec.obj
 0001:0001cb00       _PR2_ClientCmd             0041db00 f   pr2_exec.obj
 0001:0001cb30       _PR2_GameClientPostThink   0041db30 f   pr2_exec.obj
 0001:0001cb80       _PR2_GameClientPreThink    0041db80 f   pr2_exec.obj
 0001:0001cbc0       _PR2_GameStartFrame        0041dbc0 f   pr2_exec.obj
 0001:0001cc30       _PR2_LoadEnts              0041dc30 f   pr2_exec.obj
 0001:0001cc60       _PR2_SetGlobalString       0041dc60 f   pr2_exec.obj
 0001:0001ccf0       _PR2_GlobalStringLocation  0041dcf0 f   pr2_exec.obj
 0001:0001cd00       _PR2_EntityStringLocation  0041dd00 f   pr2_exec.obj
 0001:0001cd30       _PR2_Init                  0041dd30 f   pr2_exec.obj
 0001:0001ce20       _PR2_GameClientDisconnect  0041de20 f   pr2_exec.obj
 0001:0001ce70       _PR2_GameClientConnect     0041de70 f   pr2_exec.obj
 0001:0001cec0       _PR2_UserInfoChanged       0041dec0 f   pr2_exec.obj
 0001:0001cef0       _PR2_GetString             0041def0 f   pr2_exec.obj
 0001:0001cfb0       _PR2_SetEntityString       0041dfb0 f   pr2_exec.obj
 0001:0001d070       _PR2_GamePutClientInServer 0041e070 f   pr2_exec.obj
 0001:0001d0b0       _PR2_GetEntityString       0041e0b0 f   pr2_exec.obj
 0001:0001d1b0       _QVM_Exec                  0041e1b0 f   pr2_vm.obj
 0001:0001dde0       _trap_Call                 0041ede0 f   pr2_vm.obj
 0001:0001de00       _QVM_RunError              0041ee00 f   pr2_vm.obj
 0001:0001de90       _QVM_FindName              0041ee90 f   pr2_vm.obj
 0001:0001ded0       _VM_LoadBytecode           0041eed0 f   pr2_vm.obj
 0001:0001e190       _LoadMapFile               0041f190 f   pr2_vm.obj
 0001:0001e3f0       _VM_PrintInfo              0041f3f0 f   pr2_vm.obj
 0001:0001e4a0       _VM_LoadNative             0041f4a0 f   pr2_vm.obj
 0001:0001e5e0       _VM_UnloadQVM              0041f5e0 f   pr2_vm.obj
 0001:0001e5f0       _ProfileEnterFunction      0041f5f0 f   pr2_vm.obj
 0001:0001e670       _PR2_Profile_f             0041f670 f   pr2_vm.obj
 0001:0001e7a0       _VM_Unload                 0041f7a0 f   pr2_vm.obj
 0001:0001e820       _PR2_IsValidWriteAddress   0041f820 f   pr2_vm.obj
 0001:0001e860       _VM_Load                   0041f860 f   pr2_vm.obj
 0001:0001eb00       _PR2_IsValidReadAddress    0041fb00 f   pr2_vm.obj
 0001:0001eb70       _QVM_StackTrace            0041fb70 f   pr2_vm.obj
 0001:0001ece0       _VM_Call                   0041fce0 f   pr2_vm.obj
 0001:0001ed80       _VM_POINTER                0041fd80 f   pr2_vm.obj
 0001:0001ede0       _PR_InitBuiltins           0041fde0 f   pr_cmds.obj
 0001:0001ef20       _PF_Fixme                  0041ff20 f   pr_cmds.obj
 0001:0001efd0       _PF_setpause               0041ffd0 f   pr_cmds.obj
 0001:0001f010       _PF_registercvar           00420010 f   pr_cmds.obj
 0001:0001f420       _PF_bound                  00420420 f   pr_cmds.obj
 0001:0001f450       _PF_max                    00420450 f   pr_cmds.obj
 0001:0001f520       _PF_min                    00420520 f   pr_cmds.obj
 0001:0001f620       _PF_sqrt                   00420620 f   pr_cmds.obj
 0001:0001f650       _PF_cos                    00420650 f   pr_cmds.obj
 0001:0001f670       _PF_sin                    00420670 f   pr_cmds.obj
 0001:0001f690       _PF_multicast              00420690 f   pr_cmds.obj
 0001:0001f6b0       _PF_stof                   004206b0 f   pr_cmds.obj
 0001:0001f740       _PF_infokey                00420740 f   pr_cmds.obj
 0001:0001fa30       _PF_logfrag                00420a30 f   pr_cmds.obj
 0001:0001fbc0       _PF_changelevel            00420bc0 f   pr_cmds.obj
 0001:0001fce0       _PF_setspawnparms          00420ce0 f   pr_cmds.obj
 0001:0001fdd0       _PF_makestatic             00420dd0 f   pr_cmds.obj
 0001:0001fe80       _PF_WriteEntity            00420e80 f   pr_cmds.obj
 0001:00020020       _PF_WriteString            00421020 f   pr_cmds.obj
 0001:00020150       _PF_WriteCoord             00421150 f   pr_cmds.obj
 0001:00020250       _PF_WriteAngle             00421250 f   pr_cmds.obj
 0001:00020350       _PF_WriteLong              00421350 f   pr_cmds.obj
 0001:00020470       _PF_WriteShort             00421470 f   pr_cmds.obj
 0001:00020590       _PF_WriteChar              00421590 f   pr_cmds.obj
 0001:000206a0       _PF_WriteByte              004216a0 f   pr_cmds.obj
 0001:00020ea0       _NQP_Reset                 00421ea0 f   pr_cmds.obj
 0001:00020f50       _WriteDest                 00421f50 f   pr_cmds.obj
 0001:00020fd0       _PF_changeyaw              00421fd0 f   pr_cmds.obj
 0001:000210b0       _PF_aim                    004220b0 f   pr_cmds.obj
 0001:000210f0       _PF_nextent                004220f0 f   pr_cmds.obj
 0001:00021190       _PF_pointcontents          00422190 f   pr_cmds.obj
 0001:000211c0       _PF_checkbottom            004221c0 f   pr_cmds.obj
 0001:000211f0       _PF_ceil                   004221f0 f   pr_cmds.obj
 0001:00021230       _PF_floor                  00422230 f   pr_cmds.obj
 0001:00021270       _PF_rint                   00422270 f   pr_cmds.obj
 0001:000212c0       _PF_lightstyle             004222c0 f   pr_cmds.obj
 0001:00021450       _PF_droptofloor            00422450 f   pr_cmds.obj
 0001:000215a0       _PF_walkmove               004225a0 f   pr_cmds.obj
 0001:00021690       _PF_eprint                 00422690 f   pr_cmds.obj
 0001:000216f0       _PF_traceoff               004226f0 f   pr_cmds.obj
 0001:00021700       _PF_traceon                00422700 f   pr_cmds.obj
 0001:00021710       _PF_coredump               00422710 f   pr_cmds.obj
 0001:00021820       _PF_precache_model         00422820 f   pr_cmds.obj
 0001:00021900       _PF_precache_sound         00422900 f   pr_cmds.obj
 0001:000219e0       _PF_precache_file          004229e0 f   pr_cmds.obj
 0001:000219f0       _PR_CheckEmptyString       004229f0 f   pr_cmds.obj
 0001:00021a10       _PF_Find                   00422a10 f   pr_cmds.obj
 0001:00021ba0       _PF_Remove                 00422ba0 f   pr_cmds.obj
 0001:00021bc0       _PF_Spawn                  00422bc0 f   pr_cmds.obj
 0001:00021be0       _PF_vtos                   00422be0 f   pr_cmds.obj
 0001:00021c70       _PF_fabs                   00422c70 f   pr_cmds.obj
 0001:00021c90       _PF_ftos                   00422c90 f   pr_cmds.obj
 0001:00021d30       _PF_dprint                 00422d30 f   pr_cmds.obj
 0001:00021f50       _PF_cvar_set               00422f50 f   pr_cmds.obj
 0001:00022010       _PF_cvar                   00423010 f   pr_cmds.obj
 0001:00022150       _PF_calltimeofday          00423150 f   pr_cmds.obj
 0001:00022230       _PF_clear_strtbl           00423230 f   pr_cmds.obj
 0001:00022270       _PF_strunzone              00423270 f   pr_cmds.obj
 0001:000222e0       _PF_strzone                004232e0 f   pr_cmds.obj
 0001:00022450       _PF_strlen                 00423450 f   pr_cmds.obj
 0001:000224d0       _PF_strcat                 004234d0 f   pr_cmds.obj
 0001:00022540       _PF_substr                 00423540 f   pr_cmds.obj
 0001:00022620       _PF_argv                   00423620 f   pr_cmds.obj
 0001:000226a0       _PF_argc                   004236a0 f   pr_cmds.obj
 0001:000226c0       _PF_tokenize               004236c0 f   pr_cmds.obj
 0001:00022730       _PF_SetTempString          00423730 f   pr_cmds.obj
 0001:00022750       _PF_localcmd               00423750 f   pr_cmds.obj
 0001:000228b0       _PF_stuffcmd               004238b0 f   pr_cmds.obj
 0001:00022dc0       _PF_newcheckclient         00423dc0 f   pr_cmds.obj
 0001:00022f40       _PF_traceline              00423f40 f   pr_cmds.obj
 0001:000230e0       _PF_break                  004240e0 f   pr_cmds.obj
 0001:00023100       _PF_sound                  00424100 f   pr_cmds.obj
 0001:00023190       _PF_ambientsound           00424190 f   pr_cmds.obj
 0001:00023740       _PF_random                 00424740 f   pr_cmds.obj
 0001:00023770       _PF_vectoangles            00424770 f   pr_cmds.obj
 0001:000238c0       _PF_vectoyaw               004248c0 f   pr_cmds.obj
 0001:00023950       _PF_vlen                   00424950 f   pr_cmds.obj
 0001:000239a0       _PF_normalize              004249a0 f   pr_cmds.obj
 0001:00023a60       _PF_centerprint            00424a60 f   pr_cmds.obj
 0001:00023bd0       _PF_sprint                 00424bd0 f   pr_cmds.obj
 0001:00023cd0       _PF_bprint                 00424cd0 f   pr_cmds.obj
 0001:00023fc0       _PF_setsize                00424fc0 f   pr_cmds.obj
 0001:00024050       _PF_setorigin              00425050 f   pr_cmds.obj
 0001:000240a0       _PF_makevectors            004250a0 f   pr_cmds.obj
 0001:000240e0       _PF_objerror               004250e0 f   pr_cmds.obj
 0001:00024170       _PF_error                  00425170 f   pr_cmds.obj
 0001:00024200       _PF_VarString              00425200 f   pr_cmds.obj
 0001:00024300       _PR_InitPatchTables        00425300 f   pr_edict.obj
 0001:00024440       _ED_ParseEdict             00425440 f   pr_edict.obj
 0001:000246b0       _ED_ParseEpair             004256b0 f   pr_edict.obj
 0001:000248e0       _ED_NewString              004258e0 f   pr_edict.obj
 0001:00024950       _ED_ParseGlobals           00425950 f   pr_edict.obj
 0001:00024af0       _ED_WriteGlobals           00425af0 f   pr_edict.obj
 0001:00024bf0       _ED_Write                  00425bf0 f   pr_edict.obj
 0001:00024d10       _PR_GlobalStringNoContents 00425d10 f   pr_edict.obj
 0001:00024e60       _PR_GlobalString           00425e60 f   pr_edict.obj
 0001:00024fc0       _PR_UglyValueString        00425fc0 f   pr_edict.obj
 0001:00025120       _PR_ValueString            00426120 f   pr_edict.obj
 0001:00025290       _ED_FindFunction           00426290 f   pr_edict.obj
 0001:00025360       _ED_FindGlobal             00426360 f   pr_edict.obj
 0001:00025420       _ED_FindField              00426420 f   pr_edict.obj
 0001:000254e0       _ED_FieldAtOfs             004264e0 f   pr_edict.obj
 0001:00025510       _ED_GlobalAtOfs            00426510 f   pr_edict.obj
 0001:00025540       _ED_FindFunctionOffset     00426540 f   pr_edict.obj
 0001:00025570       _ED_PrintNum               00426570 f   pr_edict.obj
 0001:000255b0       _ED_Print                  004265b0 f   pr_edict.obj
 0001:00025700       _PR1_LoadProgs             00426700 f   pr_edict.obj
 0001:00025b80       _ED_LoadFromFile           00426b80 f   pr_edict.obj
 0001:00025d40       _PR1_ClientCmd             00426d40 f   pr_edict.obj
 0001:00025ea0       _ED_Count                  00426ea0 f   pr_edict.obj
 0001:00025f80       _PR1_GetEdictFieldValue    00426f80 f   pr_edict.obj
 0001:00026070       _ED_PrintEdict_f           00427070 f   pr_edict.obj
 0001:000260f0       _ED1_FindFieldOffset       004270f0 f   pr_edict.obj
 0001:00026110       _ED_PrintEdicts            00427110 f   pr_edict.obj
 0001:00026180       _PR1_InitProg              00427180 f   pr_edict.obj
 0001:000261b0       _ED_Free                   004271b0 f   pr_edict.obj
 0001:00026280       _EDICT_NUM                 00427280 f   pr_edict.obj
 0001:000262b0       _ED_Alloc                  004272b0 f   pr_edict.obj
 0001:00026450       _NUM_FOR_EDICT             00427450 f   pr_edict.obj
 0001:00026480       _ED_ClearEdict             00427480 f   pr_edict.obj
 0001:00026500       _PR_ConsoleCmd             00427500 f   pr_edict.obj
 0001:00026550       _PR_LeaveFunction          00427550 f   pr_exec.obj
 0001:00026600       _PR_EnterFunction          00427600 f   pr_exec.obj
 0001:00026710       _PR_StackTrace             00427710 f   pr_exec.obj
 0001:00026810       _PR_PrintStatement         00427810 f   pr_exec.obj
 0001:000269a0       _PR_SetTmpString           004279a0 f   pr_exec.obj
 0001:00026a00       _PR_RunError               00427a00 f   pr_exec.obj
 0001:00026b90       _PR_Profile_f              00427b90 f   pr_exec.obj
 0001:00026c50       _PR1_GetString             00427c50 f   pr_exec.obj
 0001:00026c90       _PR1_GameClientPreThink    00427c90 f   pr_exec.obj
 0001:00026cb0       _PR1_ClientSay             00427cb0 f   pr_exec.obj
 0001:00026d80       _PR1_GameClientPostThink   00427d80 f   pr_exec.obj
 0001:00026db0       _PR1_SetString             00427db0 f   pr_exec.obj
 0001:00026e20       _PR1_GamePutClientInServer 00427e20 f   pr_exec.obj
 0001:00026e40       _PR1_GameClientConnect     00427e40 f   pr_exec.obj
 0001:00026e70       _PR1_UnLoadProgs           00427e70 f   pr_exec.obj
 0001:00026e90       _PR_ExecuteProgram         00427e90 f   pr_exec.obj
 0001:00027920       _PR1_PausedTic             00428920 f   pr_exec.obj
 0001:00027940       _PR1_GameClientDisconnect  00428940 f   pr_exec.obj
 0001:00027970       _SHA1_Final                00428970 f   sha1.obj
 0001:000279e0       _SHA1_Update               004289e0 f   sha1.obj
 0001:00027a10       _SHA1_Init                 00428a10 f   sha1.obj
 0001:00027a60       _SHA1                      00428a60 f   sha1.obj
 0001:00028ff0       _SV_InitOperatorCommands   00429ff0 f   sv_ccmds.obj
 0001:00029270       _SV_MasterPassword_f       0042a270 f   sv_ccmds.obj
 0001:000292d0       _SV_SnapAll_f              0042a2d0 f   sv_ccmds.obj
 0001:00029310       _SV_Snap_f                 0042a310 f   sv_ccmds.obj
 0001:00029340       _SV_Snap                   0042a340 f   sv_ccmds.obj
 0001:00029780       _SV_Gamedir_f              0042a780 f   sv_ccmds.obj
 0001:00029840       _SV_Floodprotmsg_f         0042a840 f   sv_ccmds.obj
 0001:000298a0       _SV_Floodprot_f            0042a8a0 f   sv_ccmds.obj
 0001:00029990       _SV_Gamedir                0042a990 f   sv_ccmds.obj
 0001:00029a50       _SV_User_f                 0042aa50 f   sv_ccmds.obj
 0001:00029b60       _SV_Localinfo_f            0042ab60 f   sv_ccmds.obj
 0001:00029d50       _SV_Localinfo_Set          0042ad50 f   sv_ccmds.obj
 0001:00029e30       _SV_Serverinfo_f           0042ae30 f   sv_ccmds.obj
 0001:00029f80       _SV_SendServerInfoChange   0042af80 f   sv_ccmds.obj
 0001:0002a040       _SV_ConSay_f               0042b040 f   sv_ccmds.obj
 0001:0002a270       _SV_Check_maps_f           0042b270 f   sv_ccmds.obj
 0001:0002a3e0       _SV_Status_f               0042b3e0 f   sv_ccmds.obj
 0001:0002a770       _SV_Nslookup_f             0042b770 f   sv_ccmds.obj
 0001:0002a7e0       _SV_Resolve                0042b7e0 f   sv_ccmds.obj
 0001:0002a810       _SV_ListPenalty_f          0042b810 f   sv_ccmds.obj
 0001:0002aa30       _SV_RemovePenalty_f        0042ba30 f   sv_ccmds.obj
 0001:0002aac0       _SV_Mute_f                 0042bac0 f   sv_ccmds.obj
 0001:0002af10       _SV_Cuff_f                 0042bf10 f   sv_ccmds.obj
 0001:0002b340       _SV_MatchUser              0042c340 f   sv_ccmds.obj
 0001:0002b490       _SV_KickClient             0042c490 f   sv_ccmds.obj
 0001:0002b4f0       _SV_Kick_f                 0042c4f0 f   sv_ccmds.obj
 0001:0002b750       _SV_LocalCommand_f         0042c750 f   sv_ccmds.obj
 0001:0002b9a0       _SV_RemoveFile_f           0042c9a0 f   sv_ccmds.obj
 0001:0002bbf0       _SV_RemoveDirectory_f      0042cbf0 f   sv_ccmds.obj
 0001:0002bcb0       _SV_ListFiles_f            0042ccb0 f   sv_ccmds.obj
 0001:0002bf50       _SV_ReplaceChar            0042cf50 f   sv_ccmds.obj
 0001:0002bf70       _SV_Map_f                  0042cf70 f   sv_ccmds.obj
 0001:0002bf80       _SV_Map                    0042cf80 f   sv_ccmds.obj
 0001:0002c240       _SV_Fly_f                  0042d240 f   sv_ccmds.obj
 0001:0002c2d0       _SV_Give_f                 0042d2d0 f   sv_ccmds.obj
 0001:0002c440       _SV_Noclip_f               0042d440 f   sv_ccmds.obj
 0001:0002c4c0       _SV_God_f                  0042d4c0 f   sv_ccmds.obj
 0001:0002c540       _SV_SetPlayer              0042d540 f   sv_ccmds.obj
 0001:0002c5c0       _SV_ModFragLogfile_f       0042d5c0 f   sv_ccmds.obj
 0001:0002c5d0       _SV_PlayerLogfile_f        0042d5d0 f   sv_ccmds.obj
 0001:0002c5e0       _SV_FragLogfile_f          0042d5e0 f   sv_ccmds.obj
 0001:0002c5f0       _SV_TelnetLogfile_f        0042d5f0 f   sv_ccmds.obj
 0001:0002c600       _SV_RconLogfile_f          0042d600 f   sv_ccmds.obj
 0001:0002c610       _SV_ErrorLogfile_f         0042d610 f   sv_ccmds.obj
 0001:0002c620       _SV_Logfile_f              0042d620 f   sv_ccmds.obj
 0001:0002c630       _SV_Logfile                0042d630 f   sv_ccmds.obj
 0001:0002c830       _SV_Restart_f              0042d830 f   sv_ccmds.obj
 0001:0002c840       _SV_Quit_f                 0042d840 f   sv_ccmds.obj
 0001:0002c850       _SV_Quit                   0042d850 f   sv_ccmds.obj
 0001:0002c870       _SV_ServerinfoChanged      0042d870 f   sv_ccmds.obj
 0001:0002ca00       _SV_MVDInit                0042da00 f   sv_demo.obj
 0001:0002ce90       _SV_MVDEasyRecord_f        0042de90 f   sv_demo.obj
 0001:0002d480       _SV_MVD_Record_f           0042e480 f   sv_demo.obj
 0001:0002d680       _SV_MVD_SendInitialGamestate 0042e680 f   sv_demo.obj
 0001:0002fb70       _SV_MVD_Record             00430b70 f   sv_demo.obj
 0001:0002fc60       _MVD_PlayerReset           00430c60 f   sv_demo.obj
 0001:0002fd70       _SV_MVD_Cancel_f           00430d70 f   sv_demo.obj
 0001:0002fe40       _SV_MVDStop                00430e40 f   sv_demo.obj
 0001:00030530       _SV_MVDWritePackets        00431530 f   sv_demo.obj
 0001:00031290       _DemoWriteDest             00432290 f   sv_demo.obj
 0001:00031490       _DestFlush                 00432490 f   sv_demo.obj
 0001:000317d0       _DestClose                 004327d0 f   sv_demo.obj
 0001:00031900       _DestByName                00432900 f   sv_demo.obj
 0001:00031940       _MVD_SZ_Write              00432940 f   sv_demo.obj
 0001:00031970       _MVD_MSG_WriteFloat        00432970 f   sv_demo.obj
 0001:000319e0       _SV_MVDStop_f              004329e0 f   sv_demo.obj
 0001:000319f0       _MVD_MSG_WriteShort        004329f0 f   sv_demo.obj
 0001:00031a20       _MVD_MSG_WriteLong         00432a20 f   sv_demo.obj
 0001:00031a60       _MVD_MSG_WriteAngle        00432a60 f   sv_demo.obj
 0001:00031a80       _MVD_MSG_WriteByte         00432a80 f   sv_demo.obj
 0001:00031ab0       _MVD_MSG_WriteCoord        00432ab0 f   sv_demo.obj
 0001:00031ad0       _MVD_MSG_WriteString       00432ad0 f   sv_demo.obj
 0001:00031b40       _MVDWrite_Begin            00432b40 f   sv_demo.obj
 0001:00031d10       _MVD_MSG_WriteChar         00432d10 f   sv_demo.obj
 0001:00031d40       _SV_MVDDemoName            00432d40 f   sv_demo.obj
 0001:00031d90       _SV_MVDNum                 00432d90 f   sv_demo_misc.obj
 0001:00031f10       _SV_DemoList               00432f10 f   sv_demo_misc.obj
 0001:000322c0       _Run_sv_demotxt_and_sv_onrecordfinish 004332c0 f   sv_demo_misc.obj
 0001:000324d0       _SV_DirSizeCheck           004334d0 f   sv_demo_misc.obj
 0001:00032600       _SV_DemoList_f             00433600 f   sv_demo_misc.obj
 0001:00032610       _SV_LastScores_f           00433610 f   sv_demo_misc.obj
 0001:00032850       _SV_PrintTeams             00433850 f   sv_demo_misc.obj
 0001:00032da0       _Dem_PlayerName            00433da0 f   sv_demo_misc.obj
 0001:00032de0       _SV_MVDInfoAdd_f           00433de0 f   sv_demo_misc.obj
 0001:00033140       _SV_MVDInfo_f              00434140 f   sv_demo_misc.obj
 0001:00033300       _Dem_CountPlayers          00434300 f   sv_demo_misc.obj
 0001:00033360       _CleanName_Init            00434360 f   sv_demo_misc.obj
 0001:000334e0       _SV_MVDInfoRemove_f        004344e0 f   sv_demo_misc.obj
 0001:00033630       _SV_CleanName              00434630 f   sv_demo_misc.obj
 0001:000336a0       _SV_MVDRemoveNum_f         004346a0 f   sv_demo_misc.obj
 0001:00033800       _Dem_PlayerNameTeam        00434800 f   sv_demo_misc.obj
 0001:000338e0       _SV_MVDRemove_f            004348e0 f   sv_demo_misc.obj
 0001:00033b80       _Dem_Team                  00434b80 f   sv_demo_misc.obj
 0001:00033c40       _SV_DemoListRegex_f        00434c40 f   sv_demo_misc.obj
 0001:00033c50       _Dem_CountTeamPlayers      00434c50 f   sv_demo_misc.obj
 0001:00033cc0       _quote                     00434cc0 f   sv_demo_misc.obj
 0001:00033d60       _SV_MVDName2Txt            00434d60 f   sv_demo_misc.obj
 0001:00033eb0       _Qtv_Status_f              00434eb0 f   sv_demo_qtv.obj
 0001:00033f50       _Qtv_Close_f               00434f50 f   sv_demo_qtv.obj
 0001:000340a0       _QTV_Streams_UserList      004350a0 f   sv_demo_qtv.obj
 0001:00034110       _QTV_Streams_List          00435110 f   sv_demo_qtv.obj
 0001:00034190       _Qtv_List_f                00435190 f   sv_demo_qtv.obj
 0001:000342b0       _DemoWriteQTV              004352b0 f   sv_demo_qtv.obj
 0001:00034390       _QTV_ReadDests             00435390 f   sv_demo_qtv.obj
 0001:00034650       _QTV_ReadInput             00435650 f   sv_demo_qtv.obj
 0001:000348d0       _QTV_ExecuteCmd            004358d0 f   sv_demo_qtv.obj
 0001:00034a40       _Cmd_Qtvusers_f            00435a40 f   sv_demo_qtv.obj
 0001:00034d70       _QTVsv_ChangeEvent         00435d70 f   sv_demo_qtv.obj
 0001:00034dd0       _QTVsv_LeaveEvent          00435dd0 f   sv_demo_qtv.obj
 0001:00034e10       _QTVsv_JoinEvent           00435e10 f   sv_demo_qtv.obj
 0001:00035000       _QTVcmd_Say_f              00436000 f   sv_demo_qtv.obj
 0001:00035310       _SV_MVD_RunPendingConnections 00436310 f   sv_demo_qtv.obj
 0001:00036120       _SV_MVDStream_Poll         00437120 f   sv_demo_qtv.obj
 0001:000364b0       _SV_MVDCloseStreams        004374b0 f   sv_demo_qtv.obj
 0001:000368a0       _SV_QTV_Init               004378a0 f   sv_demo_qtv.obj
 0001:00036910       _QTVsv_FreeUserList        00437910 f   sv_demo_qtv.obj
 0001:00036950       _SV_SkipCommsBotMessage    00437950 f   sv_ents.obj
 0001:000369b0       _SV_SetVisibleEntitiesForBot 004379b0 f   sv_ents.obj
 0001:00036b50       _SV_WriteEntitiesToClient  00437b50 f   sv_ents.obj
 0001:00037630       _SV_EntityVisibleToClient  00438630 f   sv_ents.obj
 0001:00038120       _SV_PlayerVisibleToClient  00439120 f   sv_ents.obj
 0001:000388e0       _SV_WriteDelta             004398e0 f   sv_ents.obj
 0001:00039140       _SV_SpawnServer            0043a140 f   sv_init.obj
 0001:0003a9d0       _SV_ModelIndex             0043b9d0 f   sv_init.obj
 0001:0003aa50       _SV_FlushSignon            0043ba50 f   sv_init.obj
 0001:0003aad0       _SV_LoginBlockJoinRequest  0043bad0 f   sv_login.obj
 0001:0003ab40       _SV_LoginRequired          0043bb40 f   sv_login.obj
 0001:0003ab90       _SV_LoginCheckTimeOut      0043bb90 f   sv_login.obj
 0001:0003af30       _SV_ParseLogin             0043bf30 f   sv_login.obj
 0001:0003b110       _SV_ParseWebLogin          0043c110 f   sv_login.obj
 0001:0003b240       _SV_Logout                 0043c240 f   sv_login.obj
 0001:0003b300       _SV_Login                  0043c300 f   sv_login.obj
 0001:0003b500       _Login_Init                0043c500 f   sv_login.obj
 0001:0003b6e0       _SV_BlockAccount_f         0043c6e0 f   sv_login.obj
 0001:0003b710       _SV_UnblockAccount_f       0043c710 f   sv_login.obj
 0001:0003b740       _SV_blockAccount           0043c740 f   sv_login.obj
 0001:0003b870       _SV_ListAccount_f          0043c870 f   sv_login.obj
 0001:0003b900       _SV_RemoveAccount_f        0043c900 f   sv_login.obj
 0001:0003ba90       _SV_CreateAccount_f        0043ca90 f   sv_login.obj
 0001:0003bec0       _SV_LoadAccounts           0043cec0 f   sv_login.obj
 0001:0003c1e0       _SV_LoginWebCheck          0043d1e0 f   sv_login.obj
 0001:0003c230       _SV_LoginWebFailed         0043d230 f   sv_login.obj
 0001:0003c290       _Sys_compare_by_name       0043d290 f   sv_main.obj
 0001:0003c2b0       _SV_Init                   0043d2b0 f   sv_main.obj
 0001:0003c610       _Host_Init                 0043d610 f   sv_main.obj
 0001:0003cf20       _Host_InitMemory           0043df20 f   sv_main.obj
 0001:0003d090       _COM_Init                  0043e090 f   sv_main.obj
 0001:0003d0e0       _OnChange_qconsolelogsay_var 0043e0e0 f   sv_main.obj
 0001:0003d0f0       _OnChange_telnetloglevel_var 0043e0f0 f   sv_main.obj
 0001:0003d100       _OnChange_admininfo_var    0043e100 f   sv_main.obj
 0001:0003d130       _OnChange_logdir_var       0043e130 f   sv_main.obj
 0001:0003d170       _OnChange_sysselecttimeout_var 0043e170 f   sv_main.obj
 0001:0003d1a0       _SV_InitLocal              0043e1a0 f   sv_main.obj
 0001:0003d950       _SV_Frame                  0043e950 f   sv_main.obj
 0001:0003e4f0       _SV_BoundRate              0043f4f0 f   sv_main.obj
 0001:0003eed0       _SV_RestorePenaltyFilter   0043fed0 f   sv_main.obj
 0001:0003ef80       _SV_SavePenaltyFilter      0043ff80 f   sv_main.obj
 0001:0003f280       _SV_VIPbyPass              00440280 f   sv_main.obj
 0001:0003f3e0       _SV_VIPbyIP                004403e0 f   sv_main.obj
 0001:0003f420       _SV_Cmd_Banremove_f        00440420 f   sv_main.obj
 0001:0003f5a0       _SV_Cmd_Banip_f            004405a0 f   sv_main.obj
 0001:0003f9b0       _SV_Cmd_Ban_f              004409b0 f   sv_main.obj
 0001:0003ffa0       _SV_CleanBansIPList        00440fa0 f   sv_main.obj
 0001:00040040       _SV_RemoveBansIPFilter     00441040 f   sv_main.obj
 0001:00040080       _SV_CanAddBan              00441080 f   sv_main.obj
 0001:000400d0       _SV_BanList                004410d0 f   sv_main.obj
 0001:00040300       _Do_BanList                00441300 f   sv_main.obj
 0001:000404b0       _SV_FilterPacket           004414b0 f   sv_main.obj
 0001:00040510       _SV_SendBan                00441510 f   sv_main.obj
 0001:00041e00       _SV_Admin_f                00442e00 f   sv_main.obj
 0001:00041fb0       _Master_Rcon_Validate      00442fb0 f   sv_main.obj
 0001:000420e0       _Rcon_Validate             004430e0 f   sv_main.obj
 0001:00043280       _PlayerCanConnect          00444280 f   sv_main.obj
 0001:000432a0       _SpectatorCanConnect       004442a0 f   sv_main.obj
 0001:000432f0       _CountPlayersSpecsVips     004442f0 f   sv_main.obj
 0001:00043390       _CheckReConnect            00444390 f   sv_main.obj
 0001:00043520       _CheckPasswords            00444520 f   sv_main.obj
 0001:000437f0       _CheckUserinfo             004447f0 f   sv_main.obj
 0001:000438c0       _CheckProtocol             004448c0 f   sv_main.obj
 0001:00043910       _CheckChallange            00444910 f   sv_main.obj
 0001:00043a10       _FixMaxClientsCvars        00444a10 f   sv_main.obj
 0001:00044460       _SV_FullClientUpdateToClient 00445460 f   sv_main.obj
 0001:000445c0       _SV_FinalMessage           004455c0 f   sv_main.obj
 0001:00044720       _StringToFilter            00445720 f   sv_main.obj
 0001:00044800       _Host_ClearMemory          00445800 f   sv_main.obj
 0001:000448b0       _Sys_compare_by_date       004458b0 f   sv_main.obj
 0001:000448d0       _SV_Script_f               004458d0 f   sv_main.obj
 0001:00044b20       _SV_LogPlayer              00445b20 f   sv_main.obj
 0001:00044cb0       _SV_DropClient             00445cb0 f   sv_main.obj
 0001:00044e30       _SV_Shutdown               00445e30 f   sv_main.obj
 0001:00045170       _SV_RemoveIPFilter         00446170 f   sv_main.obj
 0001:000451b0       _SV_FullClientUpdate       004461b0 f   sv_main.obj
 0001:00045430       _SV_Write_Log              00446430 f   sv_main.obj
 0001:000455a0       _SV_GenerateUserID         004465a0 f   sv_main.obj
 0001:00045630       _SV_CalcPing               00446630 f   sv_main.obj
 0001:00045700       _SV_TimeOfDay              00446700 f   sv_main.obj
 0001:000457b0       _SV_ExtractFromUserinfo    004467b0 f   sv_main.obj
 0001:00045de0       _SV_Error                  00446de0 f   sv_main.obj
 0001:00045e70       _GameStarted               00446e70 f   sv_main.obj
 0001:00045fc0       _Master_Shutdown           00446fc0 f   sv_master.obj
 0001:000460f0       _Master_Heartbeat          004470f0 f   sv_master.obj
 0001:00046250       _SV_Heartbeat_f            00447250 f   sv_master.obj
 0001:00046270       _SV_SetMaster_f            00447270 f   sv_master.obj
 0001:00046400       _parse_mod_string          00447400 f   sv_mod_frags.obj
 0001:00046770       _qwmsg_pcre_check          00447770 f   sv_mod_frags.obj
 0001:000468a0       _free_qwmsg_t              004478a0 f   sv_mod_frags.obj
 0001:00046920       _sv_mod_msg_file_OnChange  00447920 f   sv_mod_frags.obj
 0001:00046c20       _SV_FixCheckBottom         00447c20 f   sv_move.obj
 0001:00046c40       _SV_MoveToGoal             00447c40 f   sv_move.obj
 0001:00046d20       _SV_NewChaseDir            00447d20 f   sv_move.obj
 0001:000470b0       _SV_CloseEnough            004480b0 f   sv_move.obj
 0001:00047100       _SV_StepDirection          00448100 f   sv_move.obj
 0001:00047310       _SV_CheckBottom            00448310 f   sv_move.obj
 0001:00047680       _SV_movestep               00448680 f   sv_move.obj
 0001:00047ac0       _SV_ClearBackbuf           00448ac0 f   sv_nchan.obj
 0001:00047ad0       _ClientReliableWrite_SZ    00448ad0 f   sv_nchan.obj
 0001:00047b60       _ClientReliableWrite_Float 00448b60 f   sv_nchan.obj
 0001:00047bf0       _ClientReliable_FinishWrite 00448bf0 f   sv_nchan.obj
 0001:00047c40       _SV_ClearReliable          00448c40 f   sv_nchan.obj
 0001:00047c60       _ClientReliableWrite_Coord 00448c60 f   sv_nchan.obj
 0001:00047cd0       _ClientReliableWrite_Short 00448cd0 f   sv_nchan.obj
 0001:00047d70       _ClientReliableWrite_Char  00448d70 f   sv_nchan.obj
 0001:00047df0       _ClientReliableWrite_Byte  00448df0 f   sv_nchan.obj
 0001:00047e70       _ClientReliableWrite_Long  00448e70 f   sv_nchan.obj
 0001:00047f40       _ClientReliableCheckBlock  00448f40 f   sv_nchan.obj
 0001:00048000       _ClientReliableWrite_Angle 00449000 f   sv_nchan.obj
 0001:00048070       _ClientReliableWrite_Begin 00449070 f   sv_nchan.obj
 0001:00048090       _ClientReliableWrite_String 00449090 f   sv_nchan.obj
 0001:00048190       _SV_RunNewmis              00449190 f   sv_phys.obj
 0001:000481f0       _SV_RunNQNewmis            004491f0 f   sv_phys.obj
 0001:000482f0       _SV_RunEntity              004492f0 f   sv_phys.obj
 0001:00048500       _SV_Physics_Step           00449500 f   sv_phys.obj
 0001:000485e0       _SV_Physics_Toss           004495e0 f   sv_phys.obj
 0001:00048980       _SV_CheckWaterTransition   00449980 f   sv_phys.obj
 0001:00048a70       _SV_Physics_Noclip         00449a70 f   sv_phys.obj
 0001:00048b10       _SV_Physics_None           00449b10 f   sv_phys.obj
 0001:00048b20       _SV_Physics_Pusher         00449b20 f   sv_phys.obj
 0001:00048d50       _SV_PushMove               00449d50 f   sv_phys.obj
 0001:00048e10       _SV_Push                   00449e10 f   sv_phys.obj
 0001:00049280       _SV_PushEntity             0044a280 f   sv_phys.obj
 0001:000493a0       _SV_AddGravity             0044a3a0 f   sv_phys.obj
 0001:000493d0       _SV_FlyMove                0044a3d0 f   sv_phys.obj
 0001:00049970       _ClipVelocity              0044a970 f   sv_phys.obj
 0001:00049a30       _SV_Impact                 0044aa30 f   sv_phys.obj
 0001:00049b40       _SV_RunThink               0044ab40 f   sv_phys.obj
 0001:00049c00       _SV_CheckVelocity          0044ac00 f   sv_phys.obj
 0001:00049d00       _OnChange_pm_airstep       0044ad00 f   sv_phys.obj
 0001:00049d50       _SV_RunBots                0044ad50 f   sv_phys.obj
 0001:0004a020       _SV_Physics                0044b020 f   sv_phys.obj
 0001:0004a290       _SV_ProgStartFrame         0044b290 f   sv_phys.obj
 0001:0004a320       _SV_SetMoveVars            0044b320 f   sv_phys.obj
 0001:0004a3c0       _SV_SavegameComment        0044b3c0 f   sv_save.obj
 0001:0004a4e0       _SV_SaveGame_f             0044b4e0 f   sv_save.obj
 0001:0004ab00       _SV_LoadGame_f             0044bb00 f   sv_save.obj
 0001:0004b160       _MVD_WriteStats            0044c160 f   sv_send.obj
 0001:0004b3f0       _SV_MVDPings               0044c3f0 f   sv_send.obj
 0001:0004bd60       _SV_SendClientDatagram     0044cd60 f   sv_send.obj
 0001:0004bef0       _SV_UpdateClientStats      0044cef0 f   sv_send.obj
 0001:0004c0e0       _SV_WriteClientdataToMessage 0044d0e0 f   sv_send.obj
 0001:0004cc20       _SV_MulticastEx            0044dc20 f   sv_send.obj
 0001:0004cf90       _SV_DoBroadcastPrintf      0044df90 f   sv_send.obj
 0001:0004d2b0       _SV_AddToRedirect          0044e2b0 f   sv_send.obj
 0001:0004d340       _SV_FlushRedirect          0044e340 f   sv_send.obj
 0001:0004d4d0       _SV_SendDemoMessage        0044e4d0 f   sv_send.obj
 0001:0004d930       _SV_SendClientMessages     0044e930 f   sv_send.obj
 0001:0004df30       _SV_FindModelNumbers       0044ef30 f   sv_send.obj
 0001:0004e030       _SV_SendMessagesToAll      0044f030 f   sv_send.obj
 0001:0004e060       _SV_BroadcastCommand       0044f060 f   sv_send.obj
 0001:0004e130       _SV_StartParticle          0044f130 f   sv_send.obj
 0001:0004e1e0       _SV_BroadcastPrintf        0044f1e0 f   sv_send.obj
 0001:0004e250       _SV_StartSound             0044f250 f   sv_send.obj
 0001:0004e960       _SV_Multicast              0044f960 f   sv_send.obj
 0001:0004e970       _SV_ClientPrintf           0044f970 f   sv_send.obj
 0001:0004ec40       _SV_EndRedirect            0044fc40 f   sv_send.obj
 0001:0004ec60       _SV_BeginRedirect          0044fc60 f   sv_send.obj
 0001:0004ec70       _SV_ClientPrintf2          0044fc70 f   sv_send.obj
 0001:0004ee40       _SV_BroadcastPrintfEx      0044fe40 f   sv_send.obj
 0001:0004eeb0       _Con_DPrintf               0044feb0 f   sv_send.obj
 0001:0004ef30       _Con_Printf                0044ff30 f   sv_send.obj
 0001:0004f060       _main                      00450060 f   sv_sys_win.obj
 0001:0004f220       _Sys_InitDoubleTime        00450220 f   sv_sys_win.obj
 0001:0004f290       _myInvalidParameterHandler 00450290 f   sv_sys_win.obj
 0001:0004f2a0       _Sys_Exit                  004502a0 f   sv_sys_win.obj
 0001:0004f2b0       _Sys_FileTime              004502b0 f   sv_sys_win.obj
 0001:0004f310       _ParseCommandLine          00450310 f   sv_sys_win.obj
 0001:0004f3a0       _Sys_GetModuleName         004503a0 f   sv_sys_win.obj
 0001:0004f3f0       _Sys_Init                  004503f0 f   sv_sys_win.obj
 0001:0004f540       _Sys_Script                00450540 f   sv_sys_win.obj
 0001:0004f670       _Sys_ConsoleInput          00450670 f   sv_sys_win.obj
 0001:0004f750       _Sys_rmdir                 00450750 f   sv_sys_win.obj
 0001:0004f760       _Sys_Quit                  00450760 f   sv_sys_win.obj
 0001:0004f810       _Sys_remove                00450810 f   sv_sys_win.obj
 0001:0004f820       _Sys_DLProc                00450820 f   sv_sys_win.obj
 0001:0004f830       _Sys_DLClose               00450830 f   sv_sys_win.obj
 0001:0004f840       _Sys_DLOpen                00450840 f   sv_sys_win.obj
 0001:0004f850       _Sys_listdir               00450850 f   sv_sys_win.obj
 0001:0004fb80       _Sys_DoubleTime            00450b80 f   sv_sys_win.obj
 0001:0004fc90       _Sys_EnumerateFiles        00450c90 f   sv_sys_win.obj
 0001:0004fef0       _Sys_mkdir                 00450ef0 f   sv_sys_win.obj
 0001:0004ff00       _Sys_Printf                00450f00 f   sv_sys_win.obj
 0001:00050000       _Sys_Error                 00451000 f   sv_sys_win.obj
 0001:00050320       _SV_ServerSideWeaponRank   00451320 f   sv_user.obj
 0001:00050960       _Cmd_Logout_f              00451960 f   sv_user.obj
 0001:000509e0       _Cmd_ChallengeResponse_f   004519e0 f   sv_user.obj
 0001:00050ac0       _Cmd_Login_f               00451ac0 f   sv_user.obj
 0001:00050b70       _Cmd_PEXT_f                00451b70 f   sv_user.obj
 0001:00050d30       _SV_Voice_UnmuteAll_f      00451d30 f   sv_user.obj
 0001:00050d40       _SV_Voice_MuteAll_f        00451d40 f   sv_user.obj
 0001:00050d50       _SV_Voice_Target_f         00451d50 f   sv_user.obj
 0001:00050e60       _SV_Voice_Ignore_f         00451e60 f   sv_user.obj
 0001:00050f30       _SV_VoiceReadPacket        00451f30 f   sv_user.obj
 0001:000553e0       _SV_CancelUpload           004563e0 f   sv_user.obj
 0001:00055800       _SV_NextChunkedDownload    00456800 f   sv_user.obj
 0001:00055a70       _SV_CompleteDownoload      00456a70 f   sv_user.obj
 0001:000583f0       _PlayerCheckPing           004593f0 f   sv_user.obj
 0001:00058660       _SV_VoiceSendPacket        00459660 f   sv_user.obj
 0001:00058840       _SV_RotateCmd              00459840 f   sv_user.obj
 0001:000588c0       _SV_RunCmd                 004598c0 f   sv_user.obj
 0001:00059320       _SV_PreRunCmd              0045a320 f   sv_user.obj
 0001:00059340       _SV_PostRunCmd             0045a340 f   sv_user.obj
 0001:00059a20       _SV_UserInit               0045aa20 f   sv_user.obj
 0001:00059ab0       _SV_VoiceInitClient        0045aab0 f   sv_user.obj
 0001:00059ae0       _SV_ExecuteClientMessage   0045aae0 f   sv_user.obj
 0001:0005aae0       _SV_PMTypeForClient        0045bae0 f   sv_user.obj
 0001:0005ab50       _SV_TogglePause            0045bb50 f   sv_user.obj
 0001:0005ac20       _ProcessUserInfoChange     0045bc20 f   sv_user.obj
 0001:0005aff0       _VersionStringFull         0045bff0 f   build.obj
 0001:0005b020       _SV_AntilagClipCheck       0045c020 f   world.obj
 0001:0005b2e0       _SV_AntilagClipSetUp       0045c2e0 f   world.obj
 0001:0005b360       _SV_MoveBounds             0045c360 f   world.obj
 0001:0005b470       _SV_ClipToLinks            0045c470 f   world.obj
 0001:0005b640       _SV_ClipMoveToEntity       0045c640 f   world.obj
 0001:0005ba00       _SV_LinkToLeafs            0045ca00 f   world.obj
 0001:0005bc10       _SV_CreateAreaNode         0045cc10 f   world.obj
 0001:0005bd70       _InsertLinkBefore          0045cd70 f   world.obj
 0001:0005bd90       _RemoveLink                0045cd90 f   world.obj
 0001:0005bdb0       _ClearLink                 0045cdb0 f   world.obj
 0001:0005bdc0       _SV_HullForEntity          0045cdc0 f   world.obj
 0001:0005bf90       _SV_TestEntityPosition     0045cf90 f   world.obj
 0001:0005c010       _SV_ClearWorld             0045d010 f   world.obj
 0001:0005c040       _SV_UnlinkEdict            0045d040 f   world.obj
 0001:0005c070       _SV_AreaEdicts             0045d070 f   world.obj
 0001:0005c1c0       _SV_Trace                  0045d1c0 f   world.obj
 0001:0005c4b0       _SV_LinkEdict              0045d4b0 f   world.obj
 0001:0005c770       _SV_PointContents          0045d770 f   world.obj
 0001:0005c790       _SV_AntilagReset           0045d790 f   world.obj
 0001:0005c7b0       _Cache_Free                0045d7b0 f   zone.obj
 0001:0005c820       _Cache_Init_Commands       0045d820 f   zone.obj
 0001:0005c860       _Cache_Init                0045d860 f   zone.obj
 0001:0005c8d0       _Cache_Report              0045d8d0 f   zone.obj
 0001:0005c930       _Cache_Print               0045d930 f   zone.obj
 0001:0005c990       _Cache_Flush               0045d990 f   zone.obj
 0001:0005ca20       _Cache_TryAlloc            0045da20 f   zone.obj
 0001:0005cb90       _Cache_MakeLRU             0045db90 f   zone.obj
 0001:0005cbd0       _Cache_UnlinkLRU           0045dbd0 f   zone.obj
 0001:0005cc10       _Cache_FreeHigh            0045dc10 f   zone.obj
 0001:0005cd30       _Cache_FreeLow             0045dd30 f   zone.obj
 0001:0005ce90       _Cache_Move                0045de90 f   zone.obj
 0001:0005cef0       _Hunk_HighAllocName        0045def0 f   zone.obj
 0001:0005d0d0       _Hunk_FreeToHighMark       0045e0d0 f   zone.obj
 0001:0005d140       _Hunk_HighMark             0045e140 f   zone.obj
 0001:0005d160       _Hunk_Print_f              0045e160 f   zone.obj
 0001:0005d330       _Hunk_Print                0045e330 f   zone.obj
 0001:0005d4f0       _Memory_Init               0045e4f0 f   zone.obj
 0001:0005d580       _Hunk_TempAlloc            0045e580 f   zone.obj
 0001:0005d5d0       _Hunk_AllocName            0045e5d0 f   zone.obj
 0001:0005d7e0       _Hunk_Alloc                0045e7e0 f   zone.obj
 0001:0005d800       _Hunk_LowMark              0045e800 f   zone.obj
 0001:0005d810       _Hunk_FreeToLowMark        0045e810 f   zone.obj
 0001:0005d850       _pcre_get_substring_list   0045e850 f   get.obj
 0001:0005d910       _pcre_free_substring_list  0045e910 f   get.obj
 0001:000625a0       _pcre_compile              004635a0 f   pcre.obj
 0001:00063630       _pcre_exec                 00464630 f   pcre.obj
 0001:00063be0       __chkstk                   00464be0 f   MSVCRTD:chkstk.obj
 0001:00063be0       __alloca_probe             00464be0 f   MSVCRTD:chkstk.obj
 0001:00063c10       __ftoui3                   00464c10 f   MSVCRTD:ftol3.obj
 0001:00063c1f       __ftoul3                   00464c1f f   MSVCRTD:ftol3.obj
 0001:00063c2e       __ftol3                    00464c2e f   MSVCRTD:ftol3.obj
 0001:00063c3b       __ftol3_NaN                00464c3b f   MSVCRTD:ftol3.obj
 0001:00063c53       __ftol3_work               00464c53 f   MSVCRTD:ftol3.obj
 0001:00063cd9       __ftol3_common             00464cd9 f   MSVCRTD:ftol3.obj
 0001:00063d9b       __ftol3_arg_error          00464d9b f   MSVCRTD:ftol3.obj
 0001:00063dad       __ftol3_except             00464dad f   MSVCRTD:ftol3.obj
 0001:00063df1       __dtoui3                   00464df1 f   MSVCRTD:ftol3.obj
 0001:00063e00       __dtoul3                   00464e00 f   MSVCRTD:ftol3.obj
 0001:00063e0f       __dtol3                    00464e0f f   MSVCRTD:ftol3.obj
 0001:00063e1c       __dtol3_NaN                00464e1c f   MSVCRTD:ftol3.obj
 0001:00063e39       __dtol3_work               00464e39 f   MSVCRTD:ftol3.obj
 0001:00063f20       __ultod3                   00464f20 f   MSVCRTD:ftol3.obj
 0001:00063f60       __ltod3                    00464f60 f   MSVCRTD:ftol3.obj
 0001:00063f87       _memchr                    00464f87 f   vcruntimed:VCRUNTIME140D.dll
 0001:00063f8d       _memcpy                    00464f8d f   vcruntimed:VCRUNTIME140D.dll
 0001:00063f93       _memmove                   00464f93 f   vcruntimed:VCRUNTIME140D.dll
 0001:00063f99       __CIatan2                  00464f99 f   ucrtd:ucrtbased.dll
 0001:00063f9f       __libm_sse2_acos_precise   00464f9f f   ucrtd:ucrtbased.dll
 0001:00063fa5       __libm_sse2_cos_precise    00464fa5 f   ucrtd:ucrtbased.dll
 0001:00063fab       __libm_sse2_pow_precise    00464fab f   ucrtd:ucrtbased.dll
 0001:00063fb1       __libm_sse2_sin_precise    00464fb1 f   ucrtd:ucrtbased.dll
 0001:00063fb7       __libm_sse2_sqrt_precise   00464fb7 f   ucrtd:ucrtbased.dll
 0001:00063fbd       _ceil                      00464fbd f   ucrtd:ucrtbased.dll
 0001:00063fc3       _floor                     00464fc3 f   ucrtd:ucrtbased.dll
 0001:00063fc9       __except1                  00464fc9 f   ucrtd:ucrtbased.dll
 0002:00000000       __imp__FindClose@4         00465000     kernel32:KERNEL32.dll
 0002:00000004       __imp__GetCurrentDirectoryA@8 00465004     kernel32:KERNEL32.dll
 0002:00000008       __imp__FindNextFileA@8     00465008     kernel32:KERNEL32.dll
 0002:0000000c       __imp__GetCurrentProcess@0 0046500c     kernel32:KERNEL32.dll
 0002:00000010       __imp__SetPriorityClass@8  00465010     kernel32:KERNEL32.dll
 0002:00000014       __imp__UnhandledExceptionFilter@4 00465014     kernel32:KERNEL32.dll
 0002:00000018       __imp__SetUnhandledExceptionFilter@4 00465018     kernel32:KERNEL32.dll
 0002:0000001c       __imp__TerminateProcess@8  0046501c     kernel32:KERNEL32.dll
 0002:00000020       __imp__IsProcessorFeaturePresent@4 00465020     kernel32:KERNEL32.dll
 0002:00000024       __imp__GetCurrentProcessId@0 00465024     kernel32:KERNEL32.dll
 0002:00000028       __imp__GetCurrentThreadId@0 00465028     kernel32:KERNEL32.dll
 0002:0000002c       __imp__GetSystemTimeAsFileTime@4 0046502c     kernel32:KERNEL32.dll
 0002:00000030       __imp__InitializeSListHead@4 00465030     kernel32:KERNEL32.dll
 0002:00000034       __imp__IsDebuggerPresent@0 00465034     kernel32:KERNEL32.dll
 0002:00000038       __imp__GetModuleHandleW@4  00465038     kernel32:KERNEL32.dll
 0002:0000003c       __imp__FindFirstFileA@8    0046503c     kernel32:KERNEL32.dll
 0002:00000040       __imp__GetModuleFileNameA@12 00465040     kernel32:KERNEL32.dll
 0002:00000044       __imp__QueryPerformanceCounter@4 00465044     kernel32:KERNEL32.dll
 0002:00000048       __imp__CreateProcessA@40   00465048     kernel32:KERNEL32.dll
 0002:0000004c       __imp__FreeLibrary@4       0046504c     kernel32:KERNEL32.dll
 0002:00000050       __imp__GetProcAddress@8    00465050     kernel32:KERNEL32.dll
 0002:00000054       __imp__GetConsoleTitleA@8  00465054     kernel32:KERNEL32.dll
 0002:00000058       __imp__LoadLibraryA@4      00465058     kernel32:KERNEL32.dll
 0002:0000005c       __imp__QueryPerformanceFrequency@4 0046505c     kernel32:KERNEL32.dll
 0002:00000060       __imp__GetVersionExA@4     00465060     kernel32:KERNEL32.dll
 0002:00000064       __imp__Sleep@4             00465064     kernel32:KERNEL32.dll
 0002:00000068       \177KERNEL32_NULL_THUNK_DATA 00465068     kernel32:KERNEL32.dll
 0002:0000006c       __imp__memchr              0046506c     vcruntimed:VCRUNTIME140D.dll
 0002:00000070       __imp___except_handler4_common 00465070     vcruntimed:VCRUNTIME140D.dll
 0002:00000074       __imp__strchr              00465074     vcruntimed:VCRUNTIME140D.dll
 0002:00000078       __imp__strrchr             00465078     vcruntimed:VCRUNTIME140D.dll
 0002:0000007c       __imp__memmove             0046507c     vcruntimed:VCRUNTIME140D.dll
 0002:00000080       __imp__strstr              00465080     vcruntimed:VCRUNTIME140D.dll
 0002:00000084       __imp__memcpy              00465084     vcruntimed:VCRUNTIME140D.dll
 0002:00000088       __imp__memset              00465088     vcruntimed:VCRUNTIME140D.dll
 0002:0000008c       \177VCRUNTIME140D_NULL_THUNK_DATA 0046508c     vcruntimed:VCRUNTIME140D.dll
 0002:00000090       __imp__timeGetTime@0       00465090     winmm:WINMM.dll
 0002:00000094       __imp__timeBeginPeriod@4   00465094     winmm:WINMM.dll
 0002:00000098       \177WINMM_NULL_THUNK_DATA  00465098     winmm:WINMM.dll
 0002:0000009c       __imp__bind@12             0046509c     wsock32:WSOCK32.dll
 0002:000000a0       __imp__closesocket@4       004650a0     wsock32:WSOCK32.dll
 0002:000000a4       __imp__gethostbyname@4     004650a4     wsock32:WSOCK32.dll
 0002:000000a8       __imp__select@20           004650a8     wsock32:WSOCK32.dll
 0002:000000ac       __imp__listen@8            004650ac     wsock32:WSOCK32.dll
 0002:000000b0       __imp__WSAStartup@8        004650b0     wsock32:WSOCK32.dll
 0002:000000b4       __imp__inet_addr@4         004650b4     wsock32:WSOCK32.dll
 0002:000000b8       __imp__getsockname@12      004650b8     wsock32:WSOCK32.dll
 0002:000000bc       __imp__gethostbyaddr@12    004650bc     wsock32:WSOCK32.dll
 0002:000000c0       __imp__socket@12           004650c0     wsock32:WSOCK32.dll
 0002:000000c4       __imp__ntohs@4             004650c4     wsock32:WSOCK32.dll
 0002:000000c8       __imp__inet_ntoa@4         004650c8     wsock32:WSOCK32.dll
 0002:000000cc       __imp__gethostname@8       004650cc     wsock32:WSOCK32.dll
 0002:000000d0       __imp__recvfrom@24         004650d0     wsock32:WSOCK32.dll
 0002:000000d4       __imp__WSAGetLastError@0   004650d4     wsock32:WSOCK32.dll
 0002:000000d8       __imp__accept@12           004650d8     wsock32:WSOCK32.dll
 0002:000000dc       __imp__recv@16             004650dc     wsock32:WSOCK32.dll
 0002:000000e0       __imp__htons@4             004650e0     wsock32:WSOCK32.dll
 0002:000000e4       __imp__sendto@24           004650e4     wsock32:WSOCK32.dll
 0002:000000e8       __imp__ioctlsocket@12      004650e8     wsock32:WSOCK32.dll
 0002:000000ec       __imp__setsockopt@20       004650ec     wsock32:WSOCK32.dll
 0002:000000f0       __imp__send@16             004650f0     wsock32:WSOCK32.dll
 0002:000000f4       \177WSOCK32_NULL_THUNK_DATA 004650f4     wsock32:WSOCK32.dll
 0002:000000f8       __imp__curl_formfree       004650f8     libcurl:libcurl.dll
 0002:000000fc       __imp__curl_multi_remove_handle 004650fc     libcurl:libcurl.dll
 0002:00000100       __imp__curl_multi_add_handle 00465100     libcurl:libcurl.dll
 0002:00000104       __imp__curl_global_init    00465104     libcurl:libcurl.dll
 0002:00000108       __imp__curl_multi_info_read 00465108     libcurl:libcurl.dll
 0002:0000010c       __imp__curl_global_cleanup 0046510c     libcurl:libcurl.dll
 0002:00000110       __imp__curl_easy_init      00465110     libcurl:libcurl.dll
 0002:00000114       __imp__curl_multi_cleanup  00465114     libcurl:libcurl.dll
 0002:00000118       __imp__curl_formadd        00465118     libcurl:libcurl.dll
 0002:0000011c       __imp__curl_multi_init     0046511c     libcurl:libcurl.dll
 0002:00000120       __imp__curl_easy_strerror  00465120     libcurl:libcurl.dll
 0002:00000124       __imp__curl_multi_perform  00465124     libcurl:libcurl.dll
 0002:00000128       __imp__curl_easy_cleanup   00465128     libcurl:libcurl.dll
 0002:0000012c       __imp__curl_easy_setopt    0046512c     libcurl:libcurl.dll
 0002:00000130       \177libcurl_NULL_THUNK_DATA 00465130     libcurl:libcurl.dll
 0002:00000134       __imp__ftell               00465134     ucrtd:ucrtbased.dll
 0002:00000138       __imp__fseek               00465138     ucrtd:ucrtbased.dll
 0002:0000013c       __imp__fwrite              0046513c     ucrtd:ucrtbased.dll
 0002:00000140       __imp__fread               00465140     ucrtd:ucrtbased.dll
 0002:00000144       __imp__strerror            00465144     ucrtd:ucrtbased.dll
 0002:00000148       __imp__strftime            00465148     ucrtd:ucrtbased.dll
 0002:0000014c       __imp__rand                0046514c     ucrtd:ucrtbased.dll
 0002:00000150       __imp__strncpy             00465150     ucrtd:ucrtbased.dll
 0002:00000154       __imp___time64             00465154     ucrtd:ucrtbased.dll
 0002:00000158       __imp___localtime64        00465158     ucrtd:ucrtbased.dll
 0002:0000015c       __imp____stdio_common_vsscanf 0046515c     ucrtd:ucrtbased.dll
 0002:00000160       __imp____stdio_common_vfprintf 00465160     ucrtd:ucrtbased.dll
 0002:00000164       __imp__system              00465164     ucrtd:ucrtbased.dll
 0002:00000168       __imp__feof                00465168     ucrtd:ucrtbased.dll
 0002:0000016c       __imp__fflush              0046516c     ucrtd:ucrtbased.dll
 0002:00000170       __imp__isalpha             00465170     ucrtd:ucrtbased.dll
 0002:00000174       __imp____stdio_common_vfscanf 00465174     ucrtd:ucrtbased.dll
 0002:00000178       __imp___difftime64         00465178     ucrtd:ucrtbased.dll
 0002:0000017c       __imp__srand               0046517c     ucrtd:ucrtbased.dll
 0002:00000180       __imp__strtok              00465180     ucrtd:ucrtbased.dll
 0002:00000184       __imp__fgets               00465184     ucrtd:ucrtbased.dll
 0002:00000188       __imp__fgetc               00465188     ucrtd:ucrtbased.dll
 0002:0000018c       __imp__exit                0046518c     ucrtd:ucrtbased.dll
 0002:00000190       __imp___rmdir              00465190     ucrtd:ucrtbased.dll
 0002:00000194       __imp____acrt_iob_func     00465194     ucrtd:ucrtbased.dll
 0002:00000198       __imp__remove              00465198     ucrtd:ucrtbased.dll
 0002:0000019c       __imp___set_invalid_parameter_handler 0046519c     ucrtd:ucrtbased.dll
 0002:000001a0       __imp___getch              004651a0     ucrtd:ucrtbased.dll
 0002:000001a4       __imp___kbhit              004651a4     ucrtd:ucrtbased.dll
 0002:000001a8       __imp__atoi                004651a8     ucrtd:ucrtbased.dll
 0002:000001ac       __imp___mkdir              004651ac     ucrtd:ucrtbased.dll
 0002:000001b0       __imp___seh_filter_exe     004651b0     ucrtd:ucrtbased.dll
 0002:000001b4       __imp___set_app_type       004651b4     ucrtd:ucrtbased.dll
 0002:000001b8       __imp____setusermatherr    004651b8     ucrtd:ucrtbased.dll
 0002:000001bc       __imp___configure_narrow_argv 004651bc     ucrtd:ucrtbased.dll
 0002:000001c0       __imp___initialize_narrow_environment 004651c0     ucrtd:ucrtbased.dll
 0002:000001c4       __imp___get_initial_narrow_environment 004651c4     ucrtd:ucrtbased.dll
 0002:000001c8       __imp___initterm           004651c8     ucrtd:ucrtbased.dll
 0002:000001cc       __imp___initterm_e         004651cc     ucrtd:ucrtbased.dll
 0002:000001d0       __imp___exit               004651d0     ucrtd:ucrtbased.dll
 0002:000001d4       __imp___set_fmode          004651d4     ucrtd:ucrtbased.dll
 0002:000001d8       __imp____p___argc          004651d8     ucrtd:ucrtbased.dll
 0002:000001dc       __imp____p___argv          004651dc     ucrtd:ucrtbased.dll
 0002:000001e0       __imp___cexit              004651e0     ucrtd:ucrtbased.dll
 0002:000001e4       __imp___c_exit             004651e4     ucrtd:ucrtbased.dll
 0002:000001e8       __imp___register_thread_local_exe_atexit_callback 004651e8     ucrtd:ucrtbased.dll
 0002:000001ec       __imp___configthreadlocale 004651ec     ucrtd:ucrtbased.dll
 0002:000001f0       __imp___set_new_mode       004651f0     ucrtd:ucrtbased.dll
 0002:000001f4       __imp____p__commode        004651f4     ucrtd:ucrtbased.dll
 0002:000001f8       __imp___initialize_onexit_table 004651f8     ucrtd:ucrtbased.dll
 0002:000001fc       __imp___register_onexit_function 004651fc     ucrtd:ucrtbased.dll
 0002:00000200       __imp___crt_atexit         00465200     ucrtd:ucrtbased.dll
 0002:00000204       __imp___controlfp_s        00465204     ucrtd:ucrtbased.dll
 0002:00000208       __imp__terminate           00465208     ucrtd:ucrtbased.dll
 0002:0000020c       __imp___strdup             0046520c     ucrtd:ucrtbased.dll
 0002:0000020c       __imp__strdup              0046520c     ucrtd:ucrtbased.dll
 0002:00000210       __imp___execv              00465210     ucrtd:ucrtbased.dll
 0002:00000210       __imp__execv               00465210     ucrtd:ucrtbased.dll
 0002:00000214       __imp__putch               00465214     ucrtd:ucrtbased.dll
 0002:00000214       __imp___putch              00465214     ucrtd:ucrtbased.dll
 0002:00000218       __imp___close              00465218     ucrtd:ucrtbased.dll
 0002:00000218       __imp__close               00465218     ucrtd:ucrtbased.dll
 0002:0000021c       __imp__floor               0046521c     ucrtd:ucrtbased.dll
 0002:00000220       __imp___stricmp            00465220     ucrtd:ucrtbased.dll
 0002:00000224       __imp__qsort               00465224     ucrtd:ucrtbased.dll
 0002:00000228       __imp__fclose              00465228     ucrtd:ucrtbased.dll
 0002:0000022c       __imp__fopen               0046522c     ucrtd:ucrtbased.dll
 0002:00000230       __imp__malloc              00465230     ucrtd:ucrtbased.dll
 0002:00000234       __imp__isdigit             00465234     ucrtd:ucrtbased.dll
 0002:00000238       __imp____stdio_common_vsprintf 00465238     ucrtd:ucrtbased.dll
 0002:0000023c       __imp__strncmp             0046523c     ucrtd:ucrtbased.dll
 0002:00000240       __imp___strnicmp           00465240     ucrtd:ucrtbased.dll
 0002:00000244       __imp__isxdigit            00465244     ucrtd:ucrtbased.dll
 0002:00000248       __imp__tolower             00465248     ucrtd:ucrtbased.dll
 0002:0000024c       __imp__calloc              0046524c     ucrtd:ucrtbased.dll
 0002:00000250       __imp___stat64i32          00465250     ucrtd:ucrtbased.dll
 0002:00000254       __imp__free                00465254     ucrtd:ucrtbased.dll
 0002:00000258       __imp___CIatan2            00465258     ucrtd:ucrtbased.dll
 0002:0000025c       __imp___libm_sse2_acos_precise 0046525c     ucrtd:ucrtbased.dll
 0002:00000260       __imp___libm_sse2_cos_precise 00465260     ucrtd:ucrtbased.dll
 0002:00000264       __imp___libm_sse2_pow_precise 00465264     ucrtd:ucrtbased.dll
 0002:00000268       __imp___libm_sse2_sin_precise 00465268     ucrtd:ucrtbased.dll
 0002:0000026c       __imp___libm_sse2_sqrt_precise 0046526c     ucrtd:ucrtbased.dll
 0002:00000270       __imp__ceil                00465270     ucrtd:ucrtbased.dll
 0002:00000274       __imp___except1            00465274     ucrtd:ucrtbased.dll
 0002:00000278       \177ucrtbased_NULL_THUNK_DATA 00465278     ucrtd:ucrtbased.dll
 0002:0000027c       ___guard_check_icall_fptr  0046527c     MSVCRTD:guard_support.obj
 0002:00000280       ___xc_a                    00465280     MSVCRTD:initializers.obj
 0002:00000288       ___xc_z                    00465288     MSVCRTD:initializers.obj
 0002:0000028c       ___xi_a                    0046528c     MSVCRTD:initializers.obj
 0002:00000298       ___xi_z                    00465298     MSVCRTD:initializers.obj
 0002:0000029c       ___xp_a                    0046529c     MSVCRTD:initializers.obj
 0002:000002a0       ___xp_z                    004652a0     MSVCRTD:initializers.obj
 0002:000002a4       ___xt_a                    004652a4     MSVCRTD:initializers.obj
 0002:000002a8       ___xt_z                    004652a8     MSVCRTD:initializers.obj
 0002:000002b8       ??_C@_0CB@KPOPPHK@Q_malloc?3?5Not?5enough?5memory?5fre@ 004652b8     bothtools.obj
 0002:000002dc       ??_C@_0CB@FLJBMLBE@Q_calloc?3?5Not?5enough?5memory?5fre@ 004652dc     bothtools.obj
 0002:00000300       ??_C@_0CB@KFNBJICF@Q_strdup?3?5Not?5enough?5memory?5fre@ 00465300     bothtools.obj
 0002:00000321       ??_C@_00CNPNBAHC@@         00465321     bothtools.obj
 0002:00000324       ??_C@_0P@BAHNKEAK@sv_www_address@ 00465324     central.obj
 0002:00000334       ??_C@_0P@PKMJPOLD@sv_www_authkey@ 00465334     central.obj
 0002:00000344       ??_C@_0BG@DPPKDOMM@sv_www_checkin_period@ 00465344     central.obj
 0002:0000035c       ??_C@_02PPBOIJDM@60@       0046535c     central.obj
 0002:00000360       ??_C@_02JDPG@rb@           00465360     central.obj
 0002:00000364       ??_C@_0DI@GJLDIIK@WWW?3?5Response?5too?5large?0?5size?$CKn@ 00465364     central.obj
 0002:0000039c       ??_C@_0CK@LBELCBBO@WWW?3?5response?5received?0?5writing@ 0046539c     central.obj
 0002:000003c8       ??_C@_0CD@FJNJBMCI@WWW?3?5response_length?5now?5?$CFd?5byt@ 004653c8     central.obj
 0002:000003ec       ??_C@_06GGONACPB@Result@   004653ec     central.obj
 0002:000003f4       ??_C@_09HOBLHLEJ@Challenge@ 004653f4     central.obj
 0002:00000400       ??_C@_07BEIHKDLJ@Message@  00465400     central.obj
 0002:00000408       ??_C@_07PBILKAFL@Success@  00465408     central.obj
 0002:00000410       ??_C@_0N@IGDOGEBN@?1?1challenge?5@ 00465410     central.obj
 0002:00000420       ??_C@_01EEMJAFIK@?6@       00465420     central.obj
 0002:00000424       ??_C@_0BF@GFNEPAHN@Challenge?5stored?4?4?4?6@ 00465424     central.obj
 0002:0000043c       ??_C@_0L@DCCGFMBN@Error?3?5?$CFs?6@ 0046543c     central.obj
 0002:00000448       ??_C@_0BG@NFFJFPFC@Error?3?5unknown?5error?6@ 00465448     central.obj
 0002:00000460       ??_C@_05NNNCCOHC@Alias@    00465460     central.obj
 0002:00000468       ??_C@_05DHEMANOL@Login@    00465468     central.obj
 0002:00000470       ??_C@_04PMDHLBMH@Flag@     00465470     central.obj
 0002:00000478       ??_C@_0N@LBKEBKBC@Confirmation@ 00465478     central.obj
 0002:00000488       ??_C@_05OOGFFHHM@?$CKauth@ 00465488     central.obj
 0002:00000490       ??_C@_05OMCBOOCN@?$CKflag@ 00465490     central.obj
 0002:00000498       ??_C@_0DF@HPGPHBLJ@Error?3?5unknown?5error?5?$CIinvalid?5r@ 00465498     central.obj
 0002:000004d0       ??_C@_09KPOMOEEN@Broadcast@ 004654d0     central.obj
 0002:000004dc       ??_C@_0L@CDLFAONJ@UploadPath@ 004654dc     central.obj
 0002:000004e8       ??_C@_06GPFPJJPN@Upload@   004654e8     central.obj
 0002:000004f0       ??_C@_0BL@BDMMEKNK@Response?5from?5web?5server?3?6@ 004654f0     central.obj
 0002:0000050c       ??_C@_03OFAPEBGM@?$CFs?6@  0046550c     central.obj
 0002:00000510       ??_C@_02CBLDBPFN@?1?1@     00465510     central.obj
 0002:00000514       ??_C@_0CL@MNJNEJPH@Upload?5request?5deemed?5unsafe?0?5i@ 00465514     central.obj
 0002:00000540       ??_C@_06DBPGMFD@demos?1@   00465540     central.obj
 0002:00000548       ??_C@_08OBGMOMHH@?$CFs?1?$CFs?1?$CFs@ 00465548     central.obj
 0002:00000554       ??_C@_04DAMGJPCA@file@     00465554     central.obj
 0002:0000055c       ??_C@_09BNLCGMKE@localPath@ 0046555c     central.obj
 0002:00000568       ??_C@_06KAOCKAGB@upload@   00465568     central.obj
 0002:00000570       ??_C@_0BB@LBKMJPDD@Uploading?5?$CFs?4?4?4?6@ 00465570     central.obj
 0002:00000584       ??_C@_0CE@PEIJDHP@Couldn?8t?5find?5file?5?$CFs?0?5ignoring@ 00465584     central.obj
 0002:000005a8       ??_C@_0DD@IBACKOIJ@Upload?5request?5folder?5not?5autho@ 004655a8     central.obj
 0002:000005dc       ??_C@_0CE@CGEDBFNA@Failure?5contacting?5central?5serv@ 004655dc     central.obj
 0002:00000600       ??_C@_07PNMJBICM@authKey@  00465600     central.obj
 0002:00000608       ??_C@_0CM@NMFANLFN@Remote?5logins?5not?5supported?5on?5@ 00465608     central.obj
 0002:00000634       ??_C@_09DBEGHIJJ@challenge@ 00465634     central.obj
 0002:00000640       ??_C@_08HKMEAON@response@  00465640     central.obj
 0002:0000064c       ??_C@_0BO@CHDPLEHO@Authentication?1VerifyResponse@ 0046564c     central.obj
 0002:0000066c       ??_C@_0CB@EKCCAGBM@Authentication?1GenerateChalleng@ 0046566c     central.obj
 0002:00000690       ??_C@_08CCKFIFOP@userName@ 00465690     central.obj
 0002:0000069c       ??_C@_01GBGANLPD@0@        0046569c     central.obj
 0002:000006a0       ??_C@_01HIHLOKLC@1@        004656a0     central.obj
 0002:000006a4       ??_C@_06DJIHEMFI@status@   004656a4     central.obj
 0002:000006ac       ??_C@_01KMDKNFGN@?1@       004656ac     central.obj
 0002:000006b0       ??_C@_09OJADFNBE@?$CKinternal@ 004656b0     central.obj
 0002:000006bc       ??_C@_08KLDKMNLL@authinfo@ 004656bc     central.obj
 0002:000006c8       ??_C@_0BA@CMOHENI@logins?$FL?$CFd?$FN?4name@ 004656c8     central.obj
 0002:000006d8       ??_C@_0CB@NECDMHLF@Request?5failed?5?$CIadding?5to?5form?$CJ@ 004656d8     central.obj
 0002:000006fc       ??_C@_0BB@ELGCBCPL@logins?$FL?$CFd?$FN?4token@ 004656fc     central.obj
 0002:00000710       ??_C@_02DPKJAMEF@?$CFd@    00465710     central.obj
 0002:00000714       ??_C@_0L@CIMOCEK@logincount@ 00465714     central.obj
 0002:00000720       ??_C@_0CK@KILHNHHO@Address?5not?5set?5?9?5functionality@ 00465720     central.obj
 0002:0000074c       ??_C@_0CP@EABJKMJE@Usage?3?5?$CFs?5?$DMurl?$DO?5?$DMrequest?9id?$DO?5?$CI?$DM@ 0046574c     central.obj
 0002:0000077c       ??_C@_0DG@GLDHALHF@Usage?3?5?$CFs?5?$DMurl?$DO?5?$DMrequest?9id?$DO?5?$DMf@ 0046577c     central.obj
 0002:000007b4       ??_C@_0BF@EOEMBPJL@Not?5recording?5demo?$CB?6@ 004657b4     central.obj
 0002:000007cc       ??_C@_04IFJILJI@?4cfg@     004657cc     central.obj
 0002:000007d4       ??_C@_0BC@ELPABCLG@Filename?5invalid?6@ 004657d4     central.obj
 0002:000007e8       ??_C@_05GFOLEBJA@?$CFs?1?$CFs@ 004657e8     central.obj
 0002:000007f0       ??_C@_0BF@DOPHFLGL@Failed?5to?5open?5file?6@ 004657f0     central.obj
 0002:00000808       ??_C@_0CG@ODODAKPI@Request?5failed?5?$CIadding?5file?5to?5@ 00465808     central.obj
 0002:00000830       ??_C@_0L@MJEBIGKE@ERROR?3?5?$CFs?6@ 00465830     central.obj
 0002:0000083c       ??_C@_0BF@BJOBNCKO@WEB?5OK?0?5no?5callback?6@ 0046583c     central.obj
 0002:00000854       ??_C@_0BC@CDFAJDFN@ServerApi?1Checkin@ 00465854     central.obj
 0002:00000868       ??_C@_0L@IGNOHGJK@sv_web_get@ 00465868     central.obj
 0002:00000874       ??_C@_0M@ODDNKFKN@sv_web_post@ 00465874     central.obj
 0002:00000880       ??_C@_0BA@DKECDCON@sv_web_postfile@ 00465880     central.obj
 0002:00000890       ??_C@_0BI@JOMBKBLK@Cbuf_AddText?3?5overflow?6@ 00465890     cmd.obj
 0002:000008a8       ??_C@_0BL@DLAOIHAJ@Cbuf_InsertText?3?5overflow?6@ 004658a8     cmd.obj
 0002:000008c4       ??_C@_0BK@JBKANAGK@Cbuf_ExecuteEx?3?5too?5long?6@ 004658c4     cmd.obj
 0002:000008e0       ??_C@_0GB@PJPDKPPE@ATTENTION?3?5possibly?5tried?5to?5us@ 004658e0     cmd.obj
 0002:00000944       ??_C@_01CLKCMJKC@?5@       00465944     cmd.obj
 0002:00000948       ??_C@_0CJ@HNMBJIBF@exec?5?$DMfilename?$DO?5?3?5execute?5a?5scr@ 00465948     cmd.obj
 0002:00000974       ??_C@_0BC@EKILBLKK@couldn?8t?5exec?5?$CFs?6@ 00465974     cmd.obj
 0002:00000988       ??_C@_0M@NJLDBOCK@execing?5?$CFs?6@ 00465988     cmd.obj
 0002:00000994       ??_C@_03IKGEINEE@?$CFs?5@  00465994     cmd.obj
 0002:00000998       ??_C@_0BJ@GLKEFIHM@Current?5alias?5commands?3?6@ 00465998     cmd.obj
 0002:000009b4       ??_C@_09JDFPPCL@?$CFs?5?3?5?$CFs?6?6@ 004659b4     cmd.obj
 0002:000009c0       ??_C@_0BI@MCCCFJOE@Alias?5name?5is?5too?5long?6@ 004659c0     cmd.obj
 0002:000009d8       ??_C@_0CD@BBMBMMFP@Cmd_DeleteAlias?3?5alias?5list?5bro@ 004659d8     cmd.obj
 0002:000009fc       ??_C@_0CK@CIDFNHAG@unalias?5?$DMalias?$DO?3?5erase?5an?5exist@ 004659fc     cmd.obj
 0002:00000a28       ??_C@_0BE@JOCEMJBA@Unknown?5alias?5?$CC?$CFs?$CC?6@ 00465a28     cmd.obj
 0002:00000a3c       ??_C@_0CG@KIGBJGLP@Cmd_AddCommand?5after?5host_initi@ 00465a3c     cmd.obj
 0002:00000a64       ??_C@_0CN@POCDODMP@Cmd_AddCommand?3?5?$CFs?5already?5defi@ 00465a64     cmd.obj
 0002:00000a94       ??_C@_0CE@BLDHFDBK@Cmd_AddCommand?3?5?$CFs?5already?5defi@ 00465a94     cmd.obj
 0002:00000ab8       ??_C@_0BK@JNHKJALB@Failed?5to?5allocate?5memory@ 00465ab8     cmd.obj
 0002:00000ad4       ??_C@_0BD@KAGNGMAJ@No?5commands?5found?6@ 00465ad4     cmd.obj
 0002:00000ae8       ??_C@_0BD@JJCAKICE@List?5of?5commands?3?6@ 00465ae8     cmd.obj
 0002:00000afc       ??_C@_09JCFAKFIA@matching?5@ 00465afc     cmd.obj
 0002:00000b08       ??_C@_0BP@GFEAGNBG@?9?9?9?9?9?9?9?9?9?9?9?9?6?$CFd?1?$CFd?5?$CFscommands?6@ 00465b08     cmd.obj
 0002:00000b28       ??_C@_0BG@NHOAAIGH@Unknown?5command?5?$CC?$CFs?$CC?6@ 00465b28     cmd.obj
 0002:00000b40       ??_C@_0DL@NEENAMDO@usage?3?5if?5?$DMexpr1?$DO?5?$DMop?$DO?5?$DMexpr2?$DO?5@ 00465b40     cmd.obj
 0002:00000b7c       ??_C@_02EGOFBIJA@?$DN?$DN@ 00465b7c     cmd.obj
 0002:00000b80       ??_C@_01NEMOKFLO@?$DN@     00465b80     cmd.obj
 0002:00000b84       ??_C@_02FDNJECIE@?$CB?$DN@ 00465b84     cmd.obj
 0002:00000b88       ??_C@_02GMAKCBGE@?$DM?$DO@ 00465b88     cmd.obj
 0002:00000b8c       ??_C@_01PPODPGHN@?$DO@     00465b8c     cmd.obj
 0002:00000b90       ??_C@_01MNNFJEPP@?$DM@     00465b90     cmd.obj
 0002:00000b94       ??_C@_02EEKDKGMJ@?$DO?$DN@ 00465b94     cmd.obj
 0002:00000b98       ??_C@_02EHCHHCKH@?$DM?$DN@ 00465b98     cmd.obj
 0002:00000b9c       ??_C@_04GIANKECK@isin@     00465b9c     cmd.obj
 0002:00000ba4       ??_C@_05NDBNCEAH@?$CBisin@ 00465ba4     cmd.obj
 0002:00000bac       ??_C@_0BG@KJEMAJMN@unknown?5operator?3?5?$CFs?6@ 00465bac     cmd.obj
 0002:00000bc4       ??_C@_0DO@FICHNCCI@valid?5operators?5are?5?$DN?$DN?0?5?$DN?0?5?$CB?$DN?0?5@ 00465bc4     cmd.obj
 0002:00000c04       ??_C@_04HOHPNOOD@then@     00465c04     cmd.obj
 0002:00000c0c       ??_C@_04FHMCPBIP@else@     00465c0c     cmd.obj
 0002:00000c14       ??_C@_04MGEIEJAD@exec@     00465c14     cmd.obj
 0002:00000c1c       ??_C@_04OFDNEFMC@echo@     00465c1c     cmd.obj
 0002:00000c24       ??_C@_05NKHOCLEE@alias@    00465c24     cmd.obj
 0002:00000c2c       ??_C@_04PNOAOIAG@wait@     00465c2c     cmd.obj
 0002:00000c34       ??_C@_07LKLFKPJJ@cmdlist@  00465c34     cmd.obj
 0002:00000c3c       ??_C@_0L@HAJEGNCN@unaliasall@ 00465c3c     cmd.obj
 0002:00000c48       ??_C@_07DBKHPNMC@unalias@  00465c48     cmd.obj
 0002:00000c50       ??_C@_02HEBPBKGD@if@       00465c50     cmd.obj
 0002:00000c68       _pr2_API                   00465c68     pr2_cmds.obj
 0002:00000ddc       _pr2_numAPI                00465ddc     pr2_cmds.obj
 0002:00000fec       _player_mins               00465fec     pmove.obj
 0002:00000ff8       _player_maxs               00465ff8     pmove.obj
 0002:00001004       _seek_origin               00466004     pr2_cmds.obj
 0002:00001010       _cmodes                    00466010     pr2_cmds.obj
 0002:00001028       _pr_opnames                00466028     pr_exec.obj
 0002:00001150       _qw_system                 00466150     sv_mod_frags.obj
 0002:00001164       _pcre_malloc               00466164     pcre.obj
 0002:00001168       _qw_weapon                 00466168     sv_mod_frags.obj
 0002:000011b0       _shortinfotbl              004661b0     sv_user.obj
 0002:000011d8       _pcre_free                 004661d8     pcre.obj
 0002:000014d8       ??_C@_0CG@INKDPMCJ@CM_HullPointContents?3?5bad?5node?5@ 004664d8     cmodel.obj
 0002:00001500       ??_C@_0CE@BPHPHNBH@RecursiveHullTrace?3?5bad?5node?5nu@ 00466500     cmodel.obj
 0002:00001524       ??_C@_0BO@IJMDAHIF@CM_PointInLeaf?3?5numnodes?5?$DN?$DN?50@ 00466524     cmodel.obj
 0002:00001544       ??_C@_0BM@NDAEGPCC@CM_LoadMap?3?5funny?5lump?5size@ 00466544     cmodel.obj
 0002:00001560       ??_C@_0BD@MKELOBFD@Map?5with?5no?5models@ 00466560     cmodel.obj
 0002:00001574       ??_C@_0CD@BNIMPBIO@Map?5has?5too?5many?5models?5?$CI?$CFd?5vs?5@ 00466574     cmodel.obj
 0002:00001598       ??_C@_0BJ@DANOFAFB@CM_LoadMap?3?5?$CFs?5not?5found@ 00466598     cmodel.obj
 0002:000015b4       ??_C@_0DK@KJOJIHED@CM_LoadMap?3?5?$CFs?5has?5wrong?5versio@ 004665b4     cmodel.obj
 0002:000015f0       ??_C@_01FDFGLJHB@2@        004665f0     cmodel.obj
 0002:000015f4       ??_C@_0CM@IKKCOLEP@CM_LoadMap?3?5?$CFs?5has?5invalid?5lump@ 004665f4     cmodel.obj
 0002:00001620       ??_C@_0DB@OKDGGAFJ@CM_LoadMap?3?5?$CFs?5caused?5error?5whi@ 00466620     cmodel.obj
 0002:00001654       ??_C@_0BJ@OGFKJLPA@CM_InlineModel?3?5bad?5name@ 00466654     cmodel.obj
 0002:00001670       ??_C@_0BL@CFOECHKA@CM_InlineModel?3?5bad?5number@ 00466670     cmodel.obj
 0002:0000168c       ??_C@_0BP@GJKALGKF@MSG_FromCoord?3?5not?5a?5sane?5size@ 0046668c     common.obj
 0002:000016ac       ??_C@_0BN@FIJIFIJF@MSG_ToCoord?3?5not?5a?5sane?5size@ 004666ac     common.obj
 0002:000016cc       ??_C@_0DL@FIAADMDC@SZ_GetSpace?3?5overflow?5without?5a@ 004666cc     common.obj
 0002:00001708       ??_C@_0CJ@CCBKNAIN@SZ_GetSpace?3?5?$CFd?1?$CFd?5is?5?$DO?5full?5bu@ 00466708     common.obj
 0002:00001734       ??_C@_0DF@OBBNFHMG@SZ_GetSpace?3?5overflow?3?5cur?5?$DN?5?$CFd@ 00466734     common.obj
 0002:0000176c       ??_C@_0BB@BOCGIFAP@?$CI?0?$HL?$HN?$CJ?$CI?8?3?$DL?$DN?$CB?$DO?$DM?$CG?$HM?$CL@ 0046676c     common.obj
 0002:00001780       ??_C@_01KICIPPFI@?2@       00466780     common.obj
 0002:00001784       ??_C@_0BK@CMEEDOKM@Can?8t?5use?5a?5key?5with?5a?5?2?6@ 00466784     common.obj
 0002:000017a0       ??_C@_0CD@JIDDAEOO@Can?8t?5use?5keys?5or?5values?5with?5a@ 004667a0     common.obj
 0002:000017c4       ??_C@_01BJJEKLCA@?$CC@     004667c4     common.obj
 0002:000017c8       ??_C@_0CD@MGFMEBLE@Can?8t?5use?5keys?5or?5values?5with?5a@ 004667c8     common.obj
 0002:000017ec       ??_C@_0CK@JGCNMLFK@Keys?5and?5values?5must?5be?5?$DM?5?$CFd?5ch@ 004667ec     common.obj
 0002:00001818       ??_C@_0JB@DINBMJFC@Info?5string?5length?5exceeded?5?$CIch@ 00466818     common.obj
 0002:000018ac       ??_C@_06NELKLDPM@?2?$CFs?2?$CFs@ 004668ac     common.obj
 0002:000018b8       ??_C@_0HI@LDDLCDIM@Info?5string?5length?5exceeded?5?$CIad@ 004668b8     common.obj
 0002:00001930       ??_C@_0BC@FHJHGDPC@Can?8t?5set?5?$CK?5keys?6@ 00466930     common.obj
 0002:00001944       ??_C@_0P@JAPNKEH@MISSING?5VALUE?6@ 00466944     common.obj
 0002:00001954       ??_C@_0BH@PFGFFKLP@Can?8t?5set?5?$CK?5keys?5?$FL?$CFs?$FN?6@ 00466954     common.obj
 0002:0000196c       ??_C@_0BO@BEKOFAEE@Info_Remove?3?5info?5list?5broken@ 0046696c     common.obj
 0002:0000198c       ??_C@_03OMKNBPHG@dm1@      0046698c     common.obj
 0002:00001990       ??_C@_03MHIAEMLF@dm2@      00466990     common.obj
 0002:00001994       ??_C@_03NOJLHNPE@dm3@      00466994     common.obj
 0002:00001998       ??_C@_03JBNKOLDD@dm4@      00466998     common.obj
 0002:0000199c       ??_C@_03IIMBNKHC@dm5@      0046699c     common.obj
 0002:000019a0       ??_C@_03KDOMIJLB@dm6@      004669a0     common.obj
 0002:000019a4       ??_C@_03JBJLGPFL@end@      004669a4     common.obj
 0002:000019a8       ??_C@_0CB@PDCCFPHJ@Cvar_Set?3?5variable?5?$CFs?5not?5found@ 004669a8     cvar.obj
 0002:000019cc       ??_C@_02NJPGOMH@?$CFf@     004669cc     cvar.obj
 0002:000019d0       ??_C@_04HANFDJND@?$CF?48g@ 004669d0     cvar.obj
 0002:000019d8       ??_C@_0CN@CIOOHBNB@Can?8t?5register?5variable?5?$CFs?0?5alr@ 004669d8     cvar.obj
 0002:00001a08       ??_C@_0CA@KPJJAJID@Cvar_Register?3?5?$CFs?5is?5a?5command?6@ 00466a08     cvar.obj
 0002:00001a28       ??_C@_0O@IICNENEG@?$CC?$CFs?$CC?5is?5?$CC?$CFs?$CC?6@ 00466a28     cvar.obj
 0002:00001a38       ??_C@_0CG@BGHMMGAA@toggle?5?$DMcvar?$DO?5?3?5toggle?5a?5cvar?5o@ 00466a38     cvar.obj
 0002:00001a60       ??_C@_0BH@LNFOCKNH@Unknown?5variable?5?$CC?$CFs?$CC?6@ 00466a60     cvar.obj
 0002:00001a78       ??_C@_0BA@KDKEPJGL@No?5cvars?5found?6@ 00466a78     cvar.obj
 0002:00001a88       ??_C@_0BA@PMPNKGKN@List?5of?5cvars?3?6@ 00466a88     cvar.obj
 0002:00001a98       ??_C@_09MDNPKHPF@?$CFc?5?$CFs?5?$CFs?6@ 00466a98     cvar.obj
 0002:00001aa4       ??_C@_0CA@FBOFBGPA@?9?9?9?9?9?9?9?9?9?9?9?9?6?$CFd?1?$CFd?5?$CFsvariables?6@ 00466aa4     cvar.obj
 0002:00001ac4       ??_C@_0BL@LKMHPFNB@usage?3?5set?5?$DMcvar?$DO?5?$DMvalue?$DO?6@ 00466ac4     cvar.obj
 0002:00001ae0       ??_C@_0BD@PKDIPAEK@?$CC?$CFs?$CC?5is?5a?5command?6@ 00466ae0     cvar.obj
 0002:00001af4       ??_C@_0BE@KJICBOOK@inc?5?$DMcvar?$DO?5?$FLvalue?$FN?6@ 00466af4     cvar.obj
 0002:00001b08       ??_C@_08HKAEGNIC@cvarlist@ 00466b08     cvar.obj
 0002:00001b14       ??_C@_08CCGPIFBK@cvardump@ 00466b14     cvar.obj
 0002:00001b20       ??_C@_06FHLCKAHH@toggle@   00466b20     cvar.obj
 0002:00001b28       ??_C@_03KCHOJKKI@set@      00466b28     cvar.obj
 0002:00001b2c       ??_C@_03JEAMEGCE@inc@      00466b2c     cvar.obj
 0002:00001b30       ??_C@_08JMCCGCMM@fs_cache@ 00466b30     fs.obj
 0002:00001b3c       ??_C@_0BG@HPKHMA@Current?5search?5path?3?6@ 00466b3c     fs.obj
 0002:00001b54       ??_C@_0M@FAPJFEJO@?9?9?9?9?9?9?9?9?9?9?6@ 00466b54     fs.obj
 0002:00001b60       ??_C@_0CG@GLLMOPHC@Warning?3?5?2?5characters?5in?5filena@ 00466b60     fs.obj
 0002:00001b88       ??_C@_02DJGKEECL@?4?4@     00466b88     fs.obj
 0002:00001b8c       ??_C@_01JLIPDDHJ@?3@       00466b8c     fs.obj
 0002:00001b90       ??_C@_0CF@BGOLKIMO@Error?3?5absolute?5path?5in?5filenam@ 00466b90     fs.obj
 0002:00001bb8       ??_C@_0DC@EGMKOIPE@FS_RebuildFSHash?3?5?$CFi?5unique?5fil@ 00466bb8     fs.obj
 0002:00001bec       ??_C@_04HDOCAJNK@?$CFs?$CFs@ 00466bec     fs.obj
 0002:00001bf4       ??_C@_05HEGJOBKO@?$CFs?$CFs?1@ 00466bf4     fs.obj
 0002:00001bfc       ??_C@_08MFJPGHDE@pak?$CFi?4?$CFs@ 00466bfc     fs.obj
 0002:00001c08       ??_C@_0L@KCKENPHI@?$CFspak?$CFi?4?$CFs@ 00466c08     fs.obj
 0002:00001c14       ??_C@_0M@EMGAGFLM@?$CFspak?$CFi?4?$CFs?1@ 00466c14     fs.obj
 0002:00001c20       ??_C@_04MINFEJHE@?$CK?4?$CFs@ 00466c20     fs.obj
 0002:00001c28       ??_C@_03HKJIJDAE@pak@      00466c28     fs.obj
 0002:00001c2c       ??_C@_03NPMJBIL@?$CFs?1@   00466c2c     fs.obj
 0002:00001c30       ??_C@_0DB@MHDLLINO@Gamedir?5should?5be?5a?5single?5file@ 00466c30     fs.obj
 0002:00001c64       ??_C@_04LNEJFJGI@path@     00466c64     fs.obj
 0002:00001c6c       ??_C@_08OHGIGCOP@?9basedir@ 00466c6c     fs.obj
 0002:00001c78       ??_C@_01LFCBOECM@?4@       00466c78     fs.obj
 0002:00001c7c       ??_C@_03BBBGPMCE@id1@      00466c7c     fs.obj
 0002:00001c80       ??_C@_02DFPDMLLL@qw@       00466c80     fs.obj
 0002:00001c84       ??_C@_05FACLEBO@?9game@    00466c84     fs.obj
 0002:00001c8c       ??_C@_08OFEOHGOK@?$CLgamedir@ 00466c8c     fs.obj
 0002:00001c98       ??_C@_08PCDFGCKJ@?$CKgamedir@ 00466c98     fs.obj
 0002:00001ca4       ??_C@_02GMLFBBN@wb@        00466ca4     fs.obj
 0002:00001ca8       ??_C@_02BOGAIONP@ab@       00466ca8     fs.obj
 0002:00001cac       ??_C@_02DKCKIIND@?$CFs@    00466cac     fs.obj
 0002:00001cb0       ??_C@_0CD@LJNMGOGD@FS_OpenVFS?3?5Bad?5relative?5path?5?$CI@ 00466cb0     fs.obj
 0002:00001cd4       ??_C@_09DPIPNIDI@VFS_CLOSE@ 00466cd4     fs.obj
 0002:00001ce0       ??_C@_08FMLMOEGG@VFS_TELL@ 00466ce0     fs.obj
 0002:00001cec       ??_C@_0L@IKMNMBEM@VFS_GETLEN@ 00466cec     fs.obj
 0002:00001cf8       ??_C@_08KOAMJFDO@VFS_SEEK@ 00466cf8     fs.obj
 0002:00001d04       ??_C@_08BDPNAIJN@VFS_READ@ 00466d04     fs.obj
 0002:00001d10       ??_C@_09FIDMPIAP@VFS_WRITE@ 00466d10     fs.obj
 0002:00001d1c       ??_C@_07KMKKDPCJ@?$DPmodel?$DP@ 00466d1c     fs.obj
 0002:00001d24       ??_C@_0BK@EOEFFFPP@FS_LoadFile?3?5bad?5usehunk?6@ 00466d24     fs.obj
 0002:00001d40       ??_C@_0CG@DKIMHFJL@FS_LoadFile?3?5not?5enough?5space?5f@ 00466d40     fs.obj
 0002:00001d68       ??_C@_0CB@ICEMMPBM@VFSOS_ReadBytes?3?5bytestoread?5?$DM?5@ 00466d68     vfs_os.obj
 0002:00001d8c       ??_C@_03HAILGFMO@?$CFs?$CK@ 00466d8c     vfs_os.obj
 0002:00001d90       ??_C@_01NBENCBCI@?$CK@     00466d90     vfs_os.obj
 0002:00001d94       ??_C@_0CN@IPMPOGCJ@VFSPAK_WriteBytes?3?5Cannot?5write@ 00466d94     vfs_pak.obj
 0002:00001dc4       ??_C@_0CH@PAKCDNIN@VFSTAR_Seek?3?5Unknown?5whence?5val@ 00466dc4     vfs_pak.obj
 0002:00001dec       ??_C@_0DD@LMGKJMAA@VFSPAK_Seek?3?5Warning?5seeking?5pa@ 00466dec     vfs_pak.obj
 0002:00001e20       ??_C@_08FFHBIJBB@?$CFs?5?$CI?$CFi?$CJ?6@ 00466e20     vfs_pak.obj
 0002:00001e2c       ??_C@_0BO@GLHNIJPH@BoxOnPlaneSide?3?5?5Bad?5signbits@ 00466e2c     mathlib.obj
 0002:00001e4c       ??_C@_0O@BMDGOKFG@sv_local_addr@ 00466e4c     net.obj
 0002:00001e5c       ??_C@_0BK@IMPAAHCK@NET_GetPacket?3?5Bad?5netsrc@ 00466e5c     net.obj
 0002:00001e78       ??_C@_0P@EMMOIPDD@?$CFi?4?$CFi?4?$CFi?4?$CFi?3?$CFi@ 00466e78     net.obj
 0002:00001e88       ??_C@_0M@OPOCDNEK@?$CFi?4?$CFi?4?$CFi?4?$CFi@ 00466e88     net.obj
 0002:00001e94       ??_C@_0CC@MEBNINHP@Warning?3?5Oversize?5packet?5from?5?$CF@ 00466e94     net.obj
 0002:00001eb8       ??_C@_0BM@EPBHCEMB@Connection?5lost?5or?5aborted?6@ 00466eb8     net.obj
 0002:00001ed4       ??_C@_0CD@ODGOGNDB@NET_GetPacket?3?5recvfrom?3?5?$CI?$CFi?$CJ?3?5@ 00466ed4     net.obj
 0002:00001ef8       ??_C@_0BJ@NDNBFPLK@Oversize?5packet?5from?5?$CFs?6@ 00466ef8     net.obj
 0002:00001f14       ??_C@_0BP@KGMLDGM@NET_GetPacket?3?5Error?5?$CI?$CFi?$CJ?3?5?$CFs?6@ 00466f14     net.obj
 0002:00001f34       ??_C@_06MEDNBGKL@qizmo?6@  00466f34     net.obj
 0002:00001f3c       ??_C@_0BE@FCPLBMCD@Unknown?5TCP?5client?6@ 00466f3c     net.obj
 0002:00001f50       ??_C@_0CE@OEDNHCDC@Warning?3?5malformed?5message?5from@ 00466f50     net.obj
 0002:00001f74       ??_C@_0CF@PPOBMMFB@NET_SendPacket?3?5sendto?3?5?$CI?$CFi?$CJ?3?5?$CF@ 00466f74     net.obj
 0002:00001f9c       ??_C@_0CD@GFNJFDHC@TCP_Set_KEEPALIVE?3?5invalid?5sock@ 00466f9c     net.obj
 0002:00001fc0       ??_C@_0CJ@HLGPECN@TCP_Set_KEEPALIVE?3?5setsockopt?3?5@ 00466fc0     net.obj
 0002:00001fec       ??_C@_0CI@NKLHIPKF@TCP_OpenListenSocket?3?5socket?3?5?$CI@ 00466fec     net.obj
 0002:00002014       ??_C@_0CH@OGIGDKGD@TCP_OpenListenSocket?3?5ioctl?3?5?$CI?$CF@ 00467014     net.obj
 0002:0000203c       ??_C@_03OENKNOFJ@?9ip@     0046703c     net.obj
 0002:00002040       ??_C@_0CH@GNFCCCJJ@Binding?5to?5IP?5Interface?5Address@ 00467040     net.obj
 0002:00002068       ??_C@_0CG@DHNBFLNN@TCP_OpenListenSocket?3?5bind?3?5?$CI?$CFi@ 00467068     net.obj
 0002:00002090       ??_C@_0CI@NNMKGCGN@TCP_OpenListenSocket?3?5listen?3?5?$CI@ 00467090     net.obj
 0002:000020b8       ??_C@_0DB@KIFMDMPO@TCP_OpenListenSocket?3?5TCP_Set_K@ 004670b8     net.obj
 0002:000020ec       ??_C@_0CC@JKCHLFHJ@UDP_OpenSocket?3?5socket?3?5?$CI?$CFi?$CJ?3?5?$CF@ 004670ec     net.obj
 0002:00002110       ??_C@_0CB@KJLHIAIJ@UDP_OpenSocket?3?5ioctl?3?5?$CI?$CFi?$CJ?3?5?$CFs@ 00467110     net.obj
 0002:00002134       ??_C@_0CA@NJJJODHO@UDP_OpenSocket?3?5bind?3?5?$CI?$CFi?$CJ?3?5?$CFs?6@ 00467134     net.obj
 0002:00002154       ??_C@_09IPAEKDAI@localhost@ 00467154     net.obj
 0002:00002160       ??_C@_09PFCHIMEP@127?40?40?41@ 00467160     net.obj
 0002:0000216c       ??_C@_07OHKHACFK@0?40?40?40@ 0046716c     net.obj
 0002:00002174       ??_C@_0BP@OHFDKPLG@Winsock?5initialization?5failed?4@ 00467174     net.obj
 0002:00002194       ??_C@_0BB@JLJMAKCK@UDP?5Initialized?6@ 00467194     net.obj
 0002:000021a8       ??_C@_0BI@CFLDNJJH@Server?5TCP?5port?5closed?6@ 004671a8     net.obj
 0002:000021c0       ??_C@_0BM@PINHDFL@Opening?5server?5TCP?5port?5?$CFu?6@ 004671c0     net.obj
 0002:000021dc       ??_C@_0CD@LOIDGOMH@Failed?5to?5open?5server?5TCP?5port?5@ 004671dc     net.obj
 0002:00002200       ??_C@_05HDLOEPOC@?9port@   00467200     net.obj
 0002:00002208       ??_C@_0CK@DIFAKOG@WARNING?3?5Couldn?8t?5allocate?5serv@ 00467208     net.obj
 0002:00002234       ??_C@_0M@DDMGOMOJ@showpackets@ 00467234     net_chan.obj
 0002:00002240       ??_C@_08HJDPOCEL@showdrop@ 00467240     net_chan.obj
 0002:0000224c       ??_C@_0BO@EFBAKHIL@?$CFs?3Outgoing?5message?5overflow?6@ 0046724c     net_chan.obj
 0002:0000226c       ??_C@_0BK@NPNIDLPJ@?9?9?$DO?5s?$DN?$CFi?$CI?$CFi?$CJ?5a?$DN?$CFi?$CI?$CFi?$CJ?5?$CFi?6@ 0046726c     net_chan.obj
 0002:00002288       ??_C@_0BK@LFOCBAAD@?$DM?9?9?5s?$DN?$CFi?$CI?$CFi?$CJ?5a?$DN?$CFi?$CI?$CFi?$CJ?5?$CFi?6@ 00467288     net_chan.obj
 0002:000022a4       ??_C@_0CB@IKJIFCCO@?$CFs?3Out?5of?5order?5packet?5?$CFi?5at?5?$CFi@ 004672a4     net_chan.obj
 0002:000022c8       ??_C@_0BN@CDDCLPO@?$CFs?3Dropped?5?$CFi?5packets?5at?5?$CFi?6@ 004672c8     net_chan.obj
 0002:000022e8       ??_C@_0BC@HHBOPHFD@Program?5error?3?5?$CFs@ 004672e8     pr2_cmds.obj
 0002:000022fc       ??_C@_0L@DMHKKGIA@Bad?5string@ 004672fc     pr2_cmds.obj
 0002:00002308       ??_C@_0DM@CEBHHEKM@PF_Precache_?$CK?3?5Precache?5can?5onl@ 00467308     pr2_cmds.obj
 0002:00002344       ??_C@_0BM@EJPMEPEG@PF_precache_sound?3?5overflow@ 00467344     pr2_cmds.obj
 0002:00002360       ??_C@_0BM@JFCBJDDE@PF_precache_model?3?5overflow@ 00467360     pr2_cmds.obj
 0002:0000237c       ??_C@_0M@BHGLBBAM@Bad?5string?6@ 0046737c     pr2_cmds.obj
 0002:00002388       ??_C@_0CB@PGCOPJII@PF_precache_vwep_model?3?5overflo@ 00467388     pr2_cmds.obj
 0002:000023ac       ??_C@_0BB@KMGAIEHB@no?5precache?3?5?$CFs?6@ 004673ac     pr2_cmds.obj
 0002:000023c0       ??_C@_0CF@EGGLBNEG@tried?5to?5sprint?5to?5a?5non?9client@ 004673c0     pr2_cmds.obj
 0002:000023e8       ??_C@_0CK@FCCBHNPL@tried?5to?5centerprint?5to?5a?5non?9c@ 004673e8     pr2_cmds.obj
 0002:00002414       ??_C@_0BL@KOCONAGO@PF2_stuffcmd?3?5NULL?5pointer@ 00467414     pr2_cmds.obj
 0002:00002430       ??_C@_0BE@GLNCPNIN@Parm?50?5not?5a?5client@ 00467430     pr2_cmds.obj
 0002:00002444       ??_C@_0M@MNJNCGPD@disconnect?6@ 00467444     pr2_cmds.obj
 0002:00002450       ??_C@_0BK@OHKGEJHN@stufftext?5buffer?5overflow@ 00467450     pr2_cmds.obj
 0002:0000246c       ??_C@_0BM@HIIAJMMF@PF2_Find?3?5bad?5search?5string@ 0046746c     pr2_cmds.obj
 0002:00002488       ??_C@_0BI@NKKGBGKE@Shouldn?8t?5be?5at?5MSG_ONE@ 00467488     pr2_cmds.obj
 0002:000024a0       ??_C@_0DM@ILBBGICL@PF_Write_?$CK?3?5MSG_INIT?5can?5only?5b@ 004674a0     pr2_cmds.obj
 0002:000024dc       ??_C@_0BL@NFFOGPGD@WriteDest?3?5bad?5destination@ 004674dc     pr2_cmds.obj
 0002:000024f8       ??_C@_0BI@LJANMNJF@WriteDest?3?5not?5a?5client@ 004674f8     pr2_cmds.obj
 0002:00002510       ??_C@_0BH@IOPHFPAL@Entity?5is?5not?5a?5client@ 00467510     pr2_cmds.obj
 0002:00002528       ??_C@_0M@DKNJHPLK@maps?1?$CFs?4bsp@ 00467528     pr2_cmds.obj
 0002:00002534       ??_C@_0P@CJCGDCLK@Can?8t?5find?5?$CFs?6@ 00467534     pr2_cmds.obj
 0002:00002544       ??_C@_0L@NCIOHMDO@map?5?$CFs?5?$CFs?6@ 00467544     pr2_cmds.obj
 0002:00002550       ??_C@_07NKFJBOH@map?5?$CFs?6@ 00467550     pr2_cmds.obj
 0002:00002558       ??_C@_0L@KNMPCLGC@?$CDbad?5date?$CD@ 00467558     pr2_cmds.obj
 0002:00002564       ??_C@_0CG@LNIJBJKB@?2frag?2?$CFs?2?$CFs?2?$CFs?2?$CFs?2?$CFd?9?$CFd?9?$CFd?5?$CFd?3?$CF@ 00467564     pr2_cmds.obj
 0002:0000258c       ??_C@_08HFCIKHGD@?2?$CFs?2?$CFs?2?6@ 0046758c     pr2_cmds.obj
 0002:00002598       ??_C@_02KAJCLHKP@no@       00467598     pr2_cmds.obj
 0002:0000259c       ??_C@_08MJBOHNJN@date_str@ 0046759c     pr2_cmds.obj
 0002:000025a8       ??_C@_02GIIHKPLE@ip@       004675a8     pr2_cmds.obj
 0002:000025ac       ??_C@_06PMMGOAHF@realip@   004675ac     pr2_cmds.obj
 0002:000025b4       ??_C@_08HNIAHLMM@download@ 004675b4     pr2_cmds.obj
 0002:000025c0       ??_C@_04OONEELOO@ping@     004675c0     pr2_cmds.obj
 0002:000025c8       ??_C@_07BHPOBAMN@?$CKuserid@ 004675c8     pr2_cmds.obj
 0002:000025d0       ??_C@_05DAOAAINN@login@    004675d0     pr2_cmds.obj
 0002:000025d8       ??_C@_04JJDKIECC@?$CKVIP@  004675d8     pr2_cmds.obj
 0002:000025e0       ??_C@_06EAFCLADL@?$CKstate@ 004675e0     pr2_cmds.obj
 0002:000025e8       ??_C@_03ICICOMAL@yes@      004675e8     pr2_cmds.obj
 0002:000025ec       ??_C@_0BG@GPIMJOAF@?$CFa?5?$CFb?5?$CFd?0?5?$CFH?3?$CFM?3?$CFS?5?$CFY@ 004675ec     pr2_cmds.obj
 0002:00002604       ??_C@_04LIAPHEDB@free@     00467604     pr2_cmds.obj
 0002:0000260c       ??_C@_06HMCIPBFC@zombie@   0046760c     pr2_cmds.obj
 0002:00002614       ??_C@_0N@CJBEJHAI@preconnected@ 00467614     pr2_cmds.obj
 0002:00002624       ??_C@_09JGOMOAGJ@connected@ 00467624     pr2_cmds.obj
 0002:00002630       ??_C@_07EIEEKBLG@spawned@  00467630     pr2_cmds.obj
 0002:00002638       ??_C@_07CIFAGBMG@unknown@  00467638     pr2_cmds.obj
 0002:00002640       ??_C@_0CE@HOBGDCID@PR2_infokey?3?5buffer?5size?5too?5sm@ 00467640     pr2_cmds.obj
 0002:00002664       ??_C@_0CK@GEHFHKIA@tried?5to?5disable_updates?5to?5a?5n@ 00467664     pr2_cmds.obj
 0002:00002690       ??_C@_0BG@CBMLGPGI@unimplemented?5bulitin@ 00467690     pr2_cmds.obj
 0002:000026a8       ??_C@_01KDCPPGHE@r@        004676a8     pr2_cmds.obj
 0002:000026ac       ??_C@_01NOFIACDB@w@        004676ac     pr2_cmds.obj
 0002:000026b0       ??_C@_01MCMALHOG@a@        004676b0     pr2_cmds.obj
 0002:000026b4       ??_C@_0BE@EAJMFKIO@PF2_FS_OpenFile?5?$CFs?6@ 004676b4     pr2_cmds.obj
 0002:000026c8       ??_C@_0CH@MGHAALLB@PR2_fcloseall?3?5pr2_num_open_fil@ 004676c8     pr2_cmds.obj
 0002:000026f0       ??_C@_02MOLJINC@?3?3@      004676f0     pr2_cmds.obj
 0002:000026f4       ??_C@_02CAHBHFGK@?4?1@     004676f4     pr2_cmds.obj
 0002:000026f8       ??_C@_0EM@DGKJMHDL@?2name?2?$CFs?2topcolor?2?$CFd?2bottomcolo@ 004676f8     pr2_cmds.obj
 0002:00002744       ??_C@_07GFBFDLBM@gravity@  00467744     pr2_cmds.obj
 0002:0000274c       ??_C@_08EAANIMDC@maxspeed@ 0046774c     pr2_cmds.obj
 0002:00002758       ??_C@_05OGHBDKII@isBot@    00467758     pr2_cmds.obj
 0002:00002760       ??_C@_0CF@NGFBKJBF@tried?5to?5remove?5a?5non?9botclient@ 00467760     pr2_cmds.obj
 0002:00002788       ??_C@_02HCKOCENL@?$CGc@    00467788     pr2_cmds.obj
 0002:0000278c       ??_C@_02CBHHAHML@?$CGr@    0046778c     pr2_cmds.obj
 0002:00002790       ??_C@_0CO@IHCBLCGO@tried?5to?5change?5userinfo?5a?5non?9@ 00467790     pr2_cmds.obj
 0002:000027c0       ??_C@_04MEMAJGDJ@name@     004677c0     pr2_cmds.obj
 0002:000027c8       ??_C@_0CG@DLPPMFGD@tried?5to?5set?5cmd?5a?5non?9botclien@ 004677c8     pr2_cmds.obj
 0002:000027f0       ??_C@_0BP@HPJBMPDE@PF2_QVMstrftime?3?5wrong?5buffer?6@ 004677f0     pr2_cmds.obj
 0002:00002810       ??_C@_0CI@LNLDMOML@PF2_QVMstrftime?3?5buffer?5size?5to@ 00467810     pr2_cmds.obj
 0002:00002838       ??_C@_0CL@DNBFGIOJ@tried?5to?5change?5userinfo?5a?5non?9@ 00467838     pr2_cmds.obj
 0002:00002864       ??_C@_0CA@HPKLEJMC@PF2_SetUserInfo?5?$CC?$CF?9?4?$CKs?$CC?5?$CC?$CF?9?4?$CKs?$CC@ 00467864     pr2_cmds.obj
 0002:00002884       ??_C@_0CA@IAKFLILC@sv_syscall?3?5Bad?5API?5call?5number@ 00467884     pr2_cmds.obj
 0002:000028a4       ??_C@_0CD@ILPBDFEN@sv_sys_callex?3?5Bad?5API?5call?5num@ 004678a4     pr2_cmds.obj
 0002:000028c8       ??_C@_0BO@EHGENHBD@PR2_InitProg?5gamedata?5?$DN?$DN?5NULL@ 004678c8     pr2_cmds.obj
 0002:000028e8       ??_C@_0EF@DMAGJMHF@PR2_InitProg?3?5Incorrect?5API?5ver@ 004678e8     pr2_cmds.obj
 0002:00002930       ??_C@_0M@KJLBCHJM@sv_progtype@ 00467930     pr2_exec.obj
 0002:0000293c       ??_C@_0BB@NPKOCLNF@sv_pr2references@ 0046793c     pr2_exec.obj
 0002:00002950       ??_C@_09IGBBBHJE@?9progtype@ 00467950     pr2_exec.obj
 0002:0000295c       ??_C@_05DNFKGADK@edict@    0046795c     pr2_exec.obj
 0002:00002964       ??_C@_06MCCDKJOH@edicts@   00467964     pr2_exec.obj
 0002:0000296c       ??_C@_0L@BLINCDOC@edictcount@ 0046796c     pr2_exec.obj
 0002:00002978       ??_C@_07LNMDFKEJ@profile@  00467978     pr2_exec.obj
 0002:00002980       ??_C@_03FFONCNID@mod@      00467980     pr2_exec.obj
 0002:00002984       ??_C@_0CB@LFNOAGCP@PR2_GetString?5error?5off?5?$CF8x?1?$CF8x@ 00467984     pr2_exec.obj
 0002:000029a8       ??_C@_0CH@GKOLDOFF@PR2_GetEntityString?5error?5off?5?$CF@ 004679a8     pr2_exec.obj
 0002:000029d0       ??_C@_0BB@OKMNAEBJ@sv_enableprofile@ 004679d0     pr2_vm.obj
 0002:000029e4       ??_C@_0BG@COGPNHJB@profiling?5no?5enabled?6@ 004679e4     pr2_vm.obj
 0002:000029fc       ??_C@_0M@JCNHKOEI@?$CF18I64d?5?$CFs?6@ 004679fc     pr2_vm.obj
 0002:00002a08       ??_C@_0BA@ELOPHAED@VM_Unload?5?$CC?$CFs?$CC?6@ 00467a08     pr2_vm.obj
 0002:00002a18       ??_C@_0CG@FACEOFKF@VM_Unload?3?5couldn?8t?5unload?5modu@ 00467a18     pr2_vm.obj
 0002:00002a40       ??_C@_09OHKFOHN@?$CFs?1?$CFs?4dll@ 00467a40     pr2_vm.obj
 0002:00002a4c       ??_C@_0BC@JOGEEENI@LoadLibrary?5?$CI?$CFs?$CJ?6@ 00467a4c     pr2_vm.obj
 0002:00002a60       ??_C@_08OHGJLDCF@dllEntry@ 00467a60     pr2_vm.obj
 0002:00002a6c       ??_C@_06MGMAGDAM@vmMain@   00467a6c     pr2_vm.obj
 0002:00002a74       ??_C@_0CN@MONGFIOP@VM_LoadNative?3?5couldn?8t?5initial@ 00467a74     pr2_vm.obj
 0002:00002aa4       ??_C@_03OCHKFGFI@dll@      00467aa4     pr2_vm.obj
 0002:00002aa8       ??_C@_06KLKBOIPI@?$CKprogs@ 00467aa8     pr2_vm.obj
 0002:00002ab0       ??_C@_0BH@BPPGPIFP@VM_PrintInfo?3?5NULL?5vm?6@ 00467ab0     pr2_vm.obj
 0002:00002ac8       ??_C@_04PFAOODAA@?$CFs?3?5@ 00467ac8     pr2_vm.obj
 0002:00002ad0       ??_C@_07IMELJBKE@native?6@ 00467ad0     pr2_vm.obj
 0002:00002ad8       ??_C@_0BG@EBHMDMIN@bytecode?5interpreted?6@ 00467ad8     pr2_vm.obj
 0002:00002af0       ??_C@_0BJ@DFHAMHH@?5?5?5?5?5code?5?5length?3?5?$CF8xh?6@ 00467af0     pr2_vm.obj
 0002:00002b0c       ??_C@_0BI@DICMFOCL@instruction?5count?3?5?$CF8d?6@ 00467b0c     pr2_vm.obj
 0002:00002b24       ??_C@_0BJ@CLMFMHKF@?5?5?5?5?5data?5?5length?3?5?$CF8xh?6@ 00467b24     pr2_vm.obj
 0002:00002b40       ??_C@_0BJ@GNEPAMNM@?5?5?5?5?5stack?5length?3?5?$CF8xh?6@ 00467b40     pr2_vm.obj
 0002:00002b5c       ??_C@_08IIMANPGO@unknown?6@ 00467b5c     pr2_vm.obj
 0002:00002b68       ??_C@_0BM@CFFMNBMF@Loading?5symbol?5information?6@ 00467b68     pr2_vm.obj
 0002:00002b84       ??_C@_06KDDHCPIP@?$CFs?4map@ 00467b84     pr2_vm.obj
 0002:00002b8c       ??_C@_09GLFANEBG@?$CFd?5?$CF8x?5?$CFs@ 00467b8c     pr2_vm.obj
 0002:00002b98       ??_C@_0BP@FOHDGJCB@bad?5cs?5off?5in?5map?5file?5?$CFs?4map?6@ 00467b98     pr2_vm.obj
 0002:00002bb8       ??_C@_0BP@IMKGCPKH@bad?5ds?5off?5in?5map?5file?5?$CFs?4map?6@ 00467bb8     pr2_vm.obj
 0002:00002bd8       ??_C@_0BL@CFDIPCHI@?$CFi?5symbols?5loaded?5from?5?$CFs?6@ 00467bd8     pr2_vm.obj
 0002:00002bf4       ??_C@_06FPPNBOEB@?$CFs?4qvm@ 00467bf4     pr2_vm.obj
 0002:00002bfc       ??_C@_0BK@KNJOKKFC@VM_LoadBytecode?3?5load?5?$CFs?6@ 00467bfc     pr2_vm.obj
 0002:00002c18       ??_C@_02IKAHHCAI@?$CFi@    00467c18     pr2_vm.obj
 0002:00002c1c       ??_C@_0DF@ILKINKAJ@VM_LoadBytecode?3?5stacksize?5grea@ 00467c1c     pr2_vm.obj
 0002:00002c54       ??_C@_07CLHGFONL@qvmcode@  00467c54     pr2_vm.obj
 0002:00002c5c       ??_C@_07BMDJDIM@qvmdata@   00467c5c     pr2_vm.obj
 0002:00002c64       ??_C@_0BD@DEGPCJAF@VM_Load?3?5bad?5parms@ 00467c64     pr2_vm.obj
 0002:00002c78       ??_C@_0P@LFEAIJEJ@VM_Load?3?5?$CC?$CFs?$CC?6@ 00467c78     pr2_vm.obj
 0002:00002c88       ??_C@_0BF@GNADHAJC@VM_Call?5with?5NULL?5vm@ 00467c88     pr2_vm.obj
 0002:00002ca0       ??_C@_0BN@DPLIDFOP@VM_Call?5with?5VM_NONE?5type?5vm@ 00467ca0     pr2_vm.obj
 0002:00002cc0       ??_C@_0BK@NHHPFCMI@VM_Call?5with?5bad?5vm?9?$DOtype@ 00467cc0     pr2_vm.obj
 0002:00002cdc       ??_C@_0BJ@HPHMKPN@instruction?5count?3?5?$CF8xh?6@ 00467cdc     pr2_vm.obj
 0002:00002cf8       ??_C@_0BG@EFABFJOJ@PC?5?$CF8x?5LP?5?$CF8x?5SP?5?$CF8x?6@ 00467cf8     pr2_vm.obj
 0002:00002d10       ??_C@_0BA@GGLOALLL@PC?9?$CF8x?5?$CFs?5?$CL?5?$CFd?6@ 00467d10     pr2_vm.obj
 0002:00002d20       ??_C@_0CI@IKHFPIPI@Error?5ret?5address?5?$CF8x?5in?5stack?5@ 00467d20     pr2_vm.obj
 0002:00002d48       ??_C@_0BM@DPENPAMC@Error?5num?5in?5stack?5?$CF8x?1?$CF8x?6@ 00467d48     pr2_vm.obj
 0002:00002d64       ??_C@_0O@PPJLJABC@?5?$CF8x?5?$CFs?5?$CL?5?$CFd?6@ 00467d64     pr2_vm.obj
 0002:00002d74       ??_C@_0O@MFNOMCKF@?5?$CF8x?5unknown?6@ 00467d74     pr2_vm.obj
 0002:00002d84       ??_C@_0BC@GKIIHIL@QVM?5Program?5error@ 00467d84     pr2_vm.obj
 0002:00002d98       ??_C@_0CB@CFNIIDBG@QVM_Exec?5MAX_vmMain_Call?5reache@ 00467d98     pr2_vm.obj
 0002:00002dbc       ??_C@_0BK@NNCNCDLM@QVM?5PC?5out?5of?5range?0?5?$CF8d?6@ 00467dbc     pr2_vm.obj
 0002:00002dd8       ??_C@_0BN@PKIFKFHH@QVM?5opStack?5underflow?5at?5?$CF8x@ 00467dd8     pr2_vm.obj
 0002:00002df8       ??_C@_0BM@PIJCFPNG@QVM?5opStack?5overflow?5at?5?$CF8x@ 00467df8     pr2_vm.obj
 0002:00002e14       ??_C@_0BK@COGAHDPJ@QVM?5Stack?5overflow?5at?5?$CF8x@ 00467e14     pr2_vm.obj
 0002:00002e30       ??_C@_0BL@FBICGKAC@QVM?5Stack?5underflow?5at?5?$CF8x@ 00467e30     pr2_vm.obj
 0002:00002e4c       ??_C@_0BH@LGEFJGGE@QVM?5runaway?5loop?5error@ 00467e4c     pr2_vm.obj
 0002:00002e64       ??_C@_09EGGOIJMK@OP_UNDEF?6@ 00467e64     pr2_vm.obj
 0002:00002e70       ??_C@_09CKNJMENO@OP_BREAK?6@ 00467e70     pr2_vm.obj
 0002:00002e7c       ??_C@_0BH@HKDBCEKE@MAX_PROC_CALL?5reached?6@ 00467e7c     pr2_vm.obj
 0002:00002e94       ??_C@_0BO@DMNMDIIA@data?5load?51?5out?5of?5range?5?$CF8x?6@ 00467e94     pr2_vm.obj
 0002:00002eb4       ??_C@_0BO@JDHFHFEK@data?5load?52?5out?5of?5range?5?$CF8x?6@ 00467eb4     pr2_vm.obj
 0002:00002ed4       ??_C@_0BO@BHFGOIJP@data?5load?54?5out?5of?5range?5?$CF8x?6@ 00467ed4     pr2_vm.obj
 0002:00002ef4       ??_C@_0BP@EBPGKCJM@data?5store?51?5out?5of?5range?5?$CF8x?6@ 00467ef4     pr2_vm.obj
 0002:00002f14       ??_C@_0BP@OOFPOPFG@data?5store?52?5out?5of?5range?5?$CF8x?6@ 00467f14     pr2_vm.obj
 0002:00002f34       ??_C@_0BP@GKHMHCID@data?5store?54?5out?5of?5range?5?$CF8x?6@ 00467f34     pr2_vm.obj
 0002:00002f54       ??_C@_0BG@NMMFBKFO@arg?5out?5of?5range?5?$CF8x?6@ 00467f54     pr2_vm.obj
 0002:00002f6c       ??_C@_0BN@LFKKOOHI@block?5copy?5out?5of?5range?5?$CF8x?6@ 00467f6c     pr2_vm.obj
 0002:00002f8c       ??_C@_0CB@MOPLIOK@invalid?5opcode?5?$CF2?42x?5at?5off?$DN?$CF8x@ 00467f8c     pr2_vm.obj
 0002:00002fb0       ??_C@_0BO@PEDNFGHF@?$DN?$DN?$DN?$DN?$DN?$DNSERVER?5ERROR?5in?5?$CFs?3?6?$CFs?6@ 00467fb0     pr_cmds.obj
 0002:00002fd0       ??_C@_0O@IJKGGKCE@Program?5error@ 00467fd0     pr_cmds.obj
 0002:00002fe0       ??_C@_0BO@HPFFHJIP@?$DN?$DN?$DN?$DN?$DN?$DNOBJECT?5ERROR?5in?5?$CFs?3?6?$CFs?6@ 00467fe0     pr_cmds.obj
 0002:00003000       ??_C@_0BO@MCKDCFJI@PF_setmodel?3?5no?5precache?3?5?$CFs?6@ 00468000     pr_cmds.obj
 0002:00003020       ??_C@_0BC@BGFONELG@maps?1b_explob?4bsp@ 00468020     pr_cmds.obj
 0002:00003034       ??_C@_0CB@LCDPNMPO@tried?5to?5sprint?5to?5a?5non?9client@ 00468034     pr_cmds.obj
 0002:00003058       ??_C@_0BB@ONNHEAJD@break?5statement?6@ 00468058     pr_cmds.obj
 0002:0000306c       ??_C@_08NOOIDFFA@restart?6@ 0046806c     pr_cmds.obj
 0002:00003078       ??_C@_0BO@MLBAOMEK@strzone?3?5out?5of?5string?5memory@ 00468078     pr_cmds.obj
 0002:00003098       ??_C@_0CA@FODCJLID@strunzone?3?5not?5a?5dynamic?5string@ 00468098     pr_cmds.obj
 0002:000030b8       ??_C@_0BG@EPJLMNHF@strunzone?3?5bad?5string@ 004680b8     pr_cmds.obj
 0002:000030d0       ??_C@_09GNALGPCC@timeofday@ 004680d0     pr_cmds.obj
 0002:000030dc       ??_C@_0BC@ILODPJAF@pr_checkextension@ 004680dc     pr_cmds.obj
 0002:000030f0       ??_C@_09KPHKOKCC@timelimit@ 004680f0     pr_cmds.obj
 0002:000030fc       ??_C@_09DPJHAPOB@samelevel@ 004680fc     pr_cmds.obj
 0002:00003108       ??_C@_0CE@PENLLIEI@PF_cvar_set?3?5variable?5?$CFs?5not?5fo@ 00468108     pr_cmds.obj
 0002:0000312c       ??_C@_05CGHOGGKE@?$CF5?41f@ 0046812c     pr_cmds.obj
 0002:00003134       ??_C@_0BE@NHBAPOHC@?8?$CF5?41f?5?$CF5?41f?5?$CF5?41f?8@ 00468134     pr_cmds.obj
 0002:00003148       ??_C@_0BL@LNEOMDKJ@PF_Find?3?5bad?5search?5string@ 00468148     pr_cmds.obj
 0002:00003164       ??_C@_08OLGKFJAO@topcolor@ 00468164     pr_cmds.obj
 0002:00003170       ??_C@_0M@IIFIMDEK@bottomcolor@ 00468170     pr_cmds.obj
 0002:0000317c       ??_C@_0M@DOCNIOIF@?1?1cutscene?6@ 0046817c     pr_cmds.obj
 0002:00003188       ??_C@_0DM@EHFKONJG@WARNING?3?5progs?4dat?5sent?5an?5unsu@ 00468188     pr_cmds.obj
 0002:000031c4       ??_C@_0DA@NFNNEGOG@WARNING?3?5progs?4dat?5sent?5an?5unsu@ 004681c4     pr_cmds.obj
 0002:000031f4       ??_C@_0CD@MKOOEHCK@min?3?5must?5supply?5at?5least?52?5flo@ 004681f4     pr_cmds.obj
 0002:00003218       ??_C@_0CD@FKGJKJED@max?3?5must?5supply?5at?5least?52?5flo@ 00468218     pr_cmds.obj
 0002:0000323c       ??_C@_0L@NGIKIDO@DP_CON_SET@ 0046823c     pr_cmds.obj
 0002:00003248       ??_C@_0BC@JDNIBGAL@DP_QC_CVAR_STRING@ 00468248     pr_cmds.obj
 0002:0000325c       ??_C@_0BC@NCLOFNIH@DP_QC_MINMAXBOUND@ 0046825c     pr_cmds.obj
 0002:00003270       ??_C@_0BA@ILPPNAMO@DP_QC_RANDOMVEC@ 00468270     pr_cmds.obj
 0002:00003280       ??_C@_0BE@ODDJLFOE@DP_QC_SINCOSSQRTPOW@ 00468280     pr_cmds.obj
 0002:00003294       ??_C@_0P@DKJGMHHH@DP_QC_TRACEBOX@ 00468294     pr_cmds.obj
 0002:000032a4       ??_C@_0BA@IPOBCODJ@DP_REGISTERCVAR@ 004682a4     pr_cmds.obj
 0002:000032b4       ??_C@_0BC@GOELAFFD@FTE_CALLTIMEOFDAY@ 004682b4     pr_cmds.obj
 0002:000032c8       ??_C@_0P@LKOFOML@QSG_CVARSTRING@ 004682c8     pr_cmds.obj
 0002:000032d8       ??_C@_0BB@IGLBOGFA@ZQ_CLIENTCOMMAND@ 004682d8     pr_cmds.obj
 0002:000032ec       ??_C@_09GHAHNMFN@ZQ_ITEMS2@ 004682ec     pr_cmds.obj
 0002:000032f8       ??_C@_0BD@ELKPDKPB@ZQ_MOVETYPE_NOCLIP@ 004682f8     pr_cmds.obj
 0002:0000330c       ??_C@_0BA@DGMPMDDJ@ZQ_MOVETYPE_FLY@ 0046830c     pr_cmds.obj
 0002:0000331c       ??_C@_0BB@OJJBKNFB@ZQ_MOVETYPE_NONE@ 0046831c     pr_cmds.obj
 0002:00003330       ??_C@_08MEKBOHII@ZQ_PAUSE@ 00468330     pr_cmds.obj
 0002:0000333c       ??_C@_0O@KHMDJMMO@ZQ_QC_STRINGS@ 0046833c     pr_cmds.obj
 0002:0000334c       ??_C@_0P@NOEPICAF@ZQ_QC_TOKENIZE@ 0046834c     pr_cmds.obj
 0002:0000335c       ??_C@_07LCCIILG@ZQ_VWEP@   0046835c     pr_cmds.obj
 0002:00003364       ??_C@_0N@MIOJOLMC@sv_progsname@ 00468364     pr_edict.obj
 0002:00003374       ??_C@_07HBBHPBJG@qwprogs@  00468374     pr_edict.obj
 0002:0000337c       ??_C@_0BA@ODOIGDJJ@sv_forcenqprogs@ 0046837c     pr_edict.obj
 0002:0000338c       ??_C@_0CI@FENAHLL@WARNING?3?5ED_Alloc?3?5no?5free?5edic@ 0046838c     pr_edict.obj
 0002:000033b4       ??_C@_09MHNEKCGF@entity?5?$CFi@ 004683b4     pr_edict.obj
 0002:000033c0       ??_C@_04DLGOCPFH@?$CFs?$CI?$CJ@ 004683c0     pr_edict.obj
 0002:000033c8       ??_C@_03KEMCFGNA@?4?$CFs@  004683c8     pr_edict.obj
 0002:000033cc       ??_C@_04GKJNKENE@void@     004683cc     pr_edict.obj
 0002:000033d4       ??_C@_07PFMCDPMA@pointer@  004683d4     pr_edict.obj
 0002:000033dc       ??_C@_0M@KKHFKAOD@bad?5type?5?$CFi@ 004683dc     pr_edict.obj
 0002:000033e8       ??_C@_08OEKJENGB@?$CFf?5?$CFf?5?$CFf@ 004683e8     pr_edict.obj
 0002:000033f4       ??_C@_07DONCDICP@?$CFi?$CI?$DP?$DP?$DP?$CJ@ 004683f4     pr_edict.obj
 0002:000033fc       ??_C@_08OMNLKAMG@?$CFi?$CI?$CFs?$CJ?$CFs@ 004683fc     pr_edict.obj
 0002:00003408       ??_C@_06KEEBBKAD@?$CFi?$CI?$CFs?$CJ@ 00468408     pr_edict.obj
 0002:00003410       ??_C@_05PFJLCECI@FREE?6@   00468410     pr_edict.obj
 0002:00003418       ??_C@_02KCPFEJNG@?$HL?6@   00468418     pr_edict.obj
 0002:0000341c       ??_C@_02KGHIDFGE@?$HN?6@   0046841c     pr_edict.obj
 0002:00003420       ??_C@_05NKLPODEL@?$CC?$CFs?$CC?5@ 00468420     pr_edict.obj
 0002:00003428       ??_C@_05LFNECPGD@?$CC?$CFs?$CC?6@ 00468428     pr_edict.obj
 0002:00003430       ??_C@_0N@FMNHPINC@?$CFi?5entities?6@ 00468430     pr_edict.obj
 0002:00003440       ??_C@_0M@MHFKOLHH@?6EDICT?5?$CFi?3?6@ 00468440     pr_edict.obj
 0002:0000344c       ??_C@_0BF@DDKJNCOB@?6Usage?3?6edict?5?$FLnum?$FN?6@ 0046844c     pr_edict.obj
 0002:00003464       ??_C@_0BE@DPHMMNMM@?6No?5such?5edict?3?5?$CFi?6@ 00468464     pr_edict.obj
 0002:00003478       ??_C@_0N@HLKCDOCF@?6?5EDICT?5?$CFi?3?6@ 00468478     pr_edict.obj
 0002:00003488       ??_C@_0BA@DEEMEEOH@num_edicts?3?$CF3i?6@ 00468488     pr_edict.obj
 0002:00003498       ??_C@_0BA@EPKPGEMM@active?5?5?5?5?3?$CF3i?6@ 00468498     pr_edict.obj
 0002:000034a8       ??_C@_0BA@PCHLOCAA@view?5?5?5?5?5?5?3?$CF3i?6@ 004684a8     pr_edict.obj
 0002:000034b8       ??_C@_0BA@HDECCCLP@touch?5?5?5?5?5?3?$CF3i?6@ 004684b8     pr_edict.obj
 0002:000034c8       ??_C@_0BA@ENDNNEAN@step?5?5?5?5?5?5?3?$CF3i?6@ 004684c8     pr_edict.obj
 0002:000034d8       ??_C@_0CK@OCIHGENJ@ED_ParseEntity?3?5EOF?5without?5clo@ 004684d8     pr_edict.obj
 0002:00003504       ??_C@_0CL@FAMJKIML@ED_ParseEntity?3?5closing?5brace?5w@ 00468504     pr_edict.obj
 0002:00003530       ??_C@_0BE@OMKLMACF@?$CFs?5is?5not?5a?5global?6@ 00468530     pr_edict.obj
 0002:00003544       ??_C@_0BN@HHOMJHKC@ED_ParseGlobals?3?5parse?5error@ 00468544     pr_edict.obj
 0002:00003564       ??_C@_0BF@LCNLLFHF@Can?8t?5find?5field?5?$CFs?6@ 00468564     pr_edict.obj
 0002:0000357c       ??_C@_0BI@HEFFHBPD@Can?8t?5find?5function?5?$CFs?6@ 0046857c     pr_edict.obj
 0002:00003594       ??_C@_05FECBCJJD@angle@    00468594     pr_edict.obj
 0002:0000359c       ??_C@_06GNEAMJOC@angles@   0046859c     pr_edict.obj
 0002:000035a4       ??_C@_05OEPGNJB@light@     004685a4     pr_edict.obj
 0002:000035ac       ??_C@_09CJGAGHGF@light_lev@ 004685ac     pr_edict.obj
 0002:000035b8       ??_C@_0BD@EBFOBBIA@?$CFs?5is?5not?5a?5field?6@ 004685b8     pr_edict.obj
 0002:000035cc       ??_C@_06FKPMFPPA@0?5?$CFs?50@ 004685cc     pr_edict.obj
 0002:000035d4       ??_C@_0BL@LGCLBNII@ED_ParseEdict?3?5parse?5error@ 004685d4     pr_edict.obj
 0002:000035f0       ??_C@_0CL@HKLEHAIH@ED_LoadFromFile?3?5found?5?$CFs?5when?5@ 004685f0     pr_edict.obj
 0002:0000361c       ??_C@_0BD@IABIKFEP@No?5classname?5for?3?6@ 0046861c     pr_edict.obj
 0002:00003630       ??_C@_0BI@FEJBANFA@No?5spawn?5function?5for?3?6@ 00468630     pr_edict.obj
 0002:00003648       ??_C@_0BH@CGIADMON@?$CFi?5entities?5inhibited?6@ 00468648     pr_edict.obj
 0002:00003660       ??_C@_09DGPGKKIF@progs?4dat@ 00468660     pr_edict.obj
 0002:0000366c       ??_C@_06LKFDKFAB@?$CFs?4dat@ 0046866c     pr_edict.obj
 0002:00003674       ??_C@_0M@MGFPIOHH@qwprogs?4dat@ 00468674     pr_edict.obj
 0002:00003680       ??_C@_0M@DFPAFGL@spprogs?4dat@ 00468680     pr_edict.obj
 0002:0000368c       ??_C@_0CH@GFIJDNKM@PR1_LoadProgs?3?5couldn?8t?5load?5pr@ 0046868c     pr_edict.obj
 0002:000036b4       ??_C@_0BG@DMIMALFO@Programs?5occupy?5?$CFiK?4?6@ 004686b4     pr_edict.obj
 0002:000036cc       ??_C@_0L@HAMANJHN@NQ?5progs?4?6@ 004686cc     pr_edict.obj
 0002:000036d8       ??_C@_0DH@NILBDPOK@qwprogs?4dat?5has?5wrong?5version?5n@ 004686d8     pr_edict.obj
 0002:00003710       ??_C@_0DI@DEBAAEHF@You?5must?5have?5the?5qwprogs?4dat?5f@ 00468710     pr_edict.obj
 0002:00003748       ??_C@_0DF@EIENBFLF@PR1_LoadProgs?3?5pr_fielddefs?$FLi?$FN?4@ 00468748     pr_edict.obj
 0002:00003780       ??_C@_0BJ@HOMOGGGM@EDICT_NUM?3?5bad?5number?5?$CFi@ 00468780     pr_edict.obj
 0002:0000379c       ??_C@_0BL@LCLABLIN@NUM_FOR_EDICT?3?5bad?5pointer@ 0046879c     pr_edict.obj
 0002:000037b8       ??_C@_04KANDKFIK@DONE@     004687b8     pr_exec.obj
 0002:000037c0       ??_C@_05BNAJGBNO@MUL_F@    004687c0     pr_exec.obj
 0002:000037c8       ??_C@_05FHMLHDIP@MUL_V@    004687c8     pr_exec.obj
 0002:000037d0       ??_C@_06INJHAMGA@MUL_FV@   004687d0     pr_exec.obj
 0002:000037d8       ??_C@_06NLHDLNEB@MUL_VF@   004687d8     pr_exec.obj
 0002:000037e0       ??_C@_03FJGHKDBE@DIV@      004687e0     pr_exec.obj
 0002:000037e4       ??_C@_05PCPPDHHI@ADD_F@    004687e4     pr_exec.obj
 0002:000037ec       ??_C@_05LIDNCFCJ@ADD_V@    004687ec     pr_exec.obj
 0002:000037f4       ??_C@_05MEAKHFAG@SUB_F@    004687f4     pr_exec.obj
 0002:000037fc       ??_C@_05IOMIGHFH@SUB_V@    004687fc     pr_exec.obj
 0002:00003804       ??_C@_04BLLMDGBC@EQ_F@     00468804     pr_exec.obj
 0002:0000380c       ??_C@_04FBHOCEED@EQ_V@     0046880c     pr_exec.obj
 0002:00003814       ??_C@_04CMAJNAAG@EQ_S@     00468814     pr_exec.obj
 0002:0000381c       ??_C@_04DAJBGFNB@EQ_E@     0046881c     pr_exec.obj
 0002:00003824       ??_C@_06BGBOECPK@EQ_FNC@   00468824     pr_exec.obj
 0002:0000382c       ??_C@_04LDBHMHML@NE_F@     0046882c     pr_exec.obj
 0002:00003834       ??_C@_04PJNFNFJK@NE_V@     00468834     pr_exec.obj
 0002:0000383c       ??_C@_04IEKCCBNP@NE_S@     0046883c     pr_exec.obj
 0002:00003844       ??_C@_04JIDKJEAI@NE_E@     00468844     pr_exec.obj
 0002:0000384c       ??_C@_06IMFOFGIN@NE_FNC@   0046884c     pr_exec.obj
 0002:00003854       ??_C@_02PEDAOJAJ@LE@       00468854     pr_exec.obj
 0002:00003858       ??_C@_02PIGFAGOI@GE@       00468858     pr_exec.obj
 0002:0000385c       ??_C@_02KHOJMKBJ@LT@       0046885c     pr_exec.obj
 0002:00003860       ??_C@_02KLLMCFPI@GT@       00468860     pr_exec.obj
 0002:00003864       ??_C@_08INNBBLHB@INDIRECT@ 00468864     pr_exec.obj
 0002:00003870       ??_C@_07EKBCFBCP@ADDRESS@  00468870     pr_exec.obj
 0002:00003878       ??_C@_07EHDKBEAE@STORE_F@  00468878     pr_exec.obj
 0002:00003880       ??_C@_07NPIAGFF@STORE_V@   00468880     pr_exec.obj
 0002:00003888       ??_C@_07HAIPPCBA@STORE_S@  00468888     pr_exec.obj
 0002:00003890       ??_C@_09MINAMBDH@STORE_ENT@ 00468890     pr_exec.obj
 0002:0000389c       ??_C@_09JDCDKIOG@STORE_FLD@ 0046889c     pr_exec.obj
 0002:000038a8       ??_C@_09NPOGOKEP@STORE_FNC@ 004688a8     pr_exec.obj
 0002:000038b4       ??_C@_08OKJNJOCH@STOREP_F@ 004688b4     pr_exec.obj
 0002:000038c0       ??_C@_08KAFPIMHG@STOREP_V@ 004688c0     pr_exec.obj
 0002:000038cc       ??_C@_08NNCIHIDD@STOREP_S@ 004688cc     pr_exec.obj
 0002:000038d8       ??_C@_0L@HLBEHBMP@STOREP_ENT@ 004688d8     pr_exec.obj
 0002:000038e4       ??_C@_0L@CAOHBIBO@STOREP_FLD@ 004688e4     pr_exec.obj
 0002:000038f0       ??_C@_0L@GMCCFKLH@STOREP_FNC@ 004688f0     pr_exec.obj
 0002:000038fc       ??_C@_06LJMOENAO@RETURN@   004688fc     pr_exec.obj
 0002:00003904       ??_C@_05CEGAODCD@NOT_F@    00468904     pr_exec.obj
 0002:0000390c       ??_C@_05GOKCPBHC@NOT_V@    0046890c     pr_exec.obj
 0002:00003914       ??_C@_05BDNFAFDH@NOT_S@    00468914     pr_exec.obj
 0002:0000391c       ??_C@_07DBMMHHLH@NOT_ENT@  0046891c     pr_exec.obj
 0002:00003924       ??_C@_07CGPKFMMP@NOT_FNC@  00468924     pr_exec.obj
 0002:0000392c       ??_C@_02NJNGHICB@IF@       0046892c     pr_exec.obj
 0002:00003930       ??_C@_05GPADNFLC@IFNOT@    00468930     pr_exec.obj
 0002:00003938       ??_C@_05NFGGPCLF@CALL0@    00468938     pr_exec.obj
 0002:00003940       ??_C@_05MMHNMDPE@CALL1@    00468940     pr_exec.obj
 0002:00003948       ??_C@_05OHFAJADH@CALL2@    00468948     pr_exec.obj
 0002:00003950       ??_C@_05POELKBHG@CALL3@    00468950     pr_exec.obj
 0002:00003958       ??_C@_05LBAKDHLB@CALL4@    00468958     pr_exec.obj
 0002:00003960       ??_C@_05KIBBAGPA@CALL5@    00468960     pr_exec.obj
 0002:00003968       ??_C@_05IDDMFFDD@CALL6@    00468968     pr_exec.obj
 0002:00003970       ??_C@_05JKCHGEHC@CALL7@    00468970     pr_exec.obj
 0002:00003978       ??_C@_05BNLPHILN@CALL8@    00468978     pr_exec.obj
 0002:00003980       ??_C@_05MMKHEPHK@STATE@    00468980     pr_exec.obj
 0002:00003988       ??_C@_04MCNBBHG@GOTO@      00468988     pr_exec.obj
 0002:00003990       ??_C@_03BDACDFHA@AND@      00468990     pr_exec.obj
 0002:00003994       ??_C@_02PDPFNDMG@OR@       00468994     pr_exec.obj
 0002:00003998       ??_C@_06JJHKGDON@BITAND@   00468998     pr_exec.obj
 0002:000039a0       ??_C@_05OOGKKCNN@BITOR@    004689a0     pr_exec.obj
 0002:000039a8       ??_C@_0M@KCFOLDKK@?$CFsbranch?5?$CFi@ 004689a8     pr_exec.obj
 0002:000039b4       ??_C@_09NNFDIFKJ@branch?5?$CFi@ 004689b4     pr_exec.obj
 0002:000039c0       ??_C@_0M@LDBMJDIP@?$DMNO?5STACK?$DO?6@ 004689c0     pr_exec.obj
 0002:000039cc       ??_C@_0P@PDKNBMIH@?$DMNO?5FUNCTION?$DO?6@ 004689cc     pr_exec.obj
 0002:000039dc       ??_C@_0L@FGLDKJHL@?$CF12s?5?3?5?$CFs?6@ 004689dc     pr_exec.obj
 0002:000039e8       ??_C@_07JDABMHGB@?$CF7i?5?$CFs?6@ 004689e8     pr_exec.obj
 0002:000039f0       ??_C@_0P@EODJGPIM@stack?5overflow@ 004689f0     pr_exec.obj
 0002:00003a00       ??_C@_0CK@BJEGIMNJ@PR_ExecuteProgram?3?5locals?5stack@ 00468a00     pr_exec.obj
 0002:00003a2c       ??_C@_0BF@JPCFGKFK@prog?5stack?5underflow@ 00468a2c     pr_exec.obj
 0002:00003a44       ??_C@_0CL@KAPCNAEM@PR_ExecuteProgram?3?5locals?5stack@ 00468a44     pr_exec.obj
 0002:00003a70       ??_C@_0CB@OHPCPNAB@PR_ExecuteProgram?3?5NULL?5functio@ 00468a70     pr_exec.obj
 0002:00003a94       ??_C@_0BD@NGKCKOEI@runaway?5loop?5error@ 00468a94     pr_exec.obj
 0002:00003aa8       ??_C@_0BL@JLCCIMHI@assignment?5to?5world?5entity@ 00468aa8     pr_exec.obj
 0002:00003ac4       ??_C@_0O@HKAMMLIG@NULL?5function@ 00468ac4     pr_exec.obj
 0002:00003ad4       ??_C@_0BI@ECDHLEGN@Bad?5builtin?5call?5number@ 00468ad4     pr_exec.obj
 0002:00003aec       ??_C@_0O@OLNHCHMJ@Bad?5opcode?5?$CFi@ 00468aec     pr_exec.obj
 0002:00003afc       ??_C@_0BJ@LJAEAIDG@PR1_GetString?3?5num?5?$DN?5?$CFd?6@ 00468afc     pr_exec.obj
 0002:00003b18       ??_C@_09JJFLPAFK@MAX_PRSTR@ 00468b18     pr_exec.obj
 0002:00003b24       ??_C@_01IFKFHFEL@?$IA@     00468b24     sha1.obj
 0002:00003b28       ??_C@_01LOCGONAA@?$AA@     00468b28     sha1.obj
 0002:00003b2c       ??_C@_04JFFKLGJF@?$CF02X@  00468b2c     sha1.obj
 0002:00003b34       ??_C@_09NFOPKLIK@sv_cheats@ 00468b34     sv_ccmds.obj
 0002:00003b40       ??_C@_0BC@DODCJCAN@Server?5shutdown?4?6@ 00468b40     sv_ccmds.obj
 0002:00003b54       ??_C@_0BB@EEFDEIIL@?$CFs?1?$CFs?$CFd_?$CF04d?4log@ 00468b54     sv_ccmds.obj
 0002:00003b68       ??_C@_0BC@BIGEJMDB@Logging?5?$CFs?5to?5?$CFs?6@ 00468b68     sv_ccmds.obj
 0002:00003b7c       ??_C@_08OEINOMOH@Failed?4?6@ 00468b7c     sv_ccmds.obj
 0002:00003b88       ??_C@_0BB@FNLJAEKO@telnet_log_level@ 00468b88     sv_ccmds.obj
 0002:00003b9c       ??_C@_0BB@JCACEKFF@qconsole_log_say@ 00468b9c     sv_ccmds.obj
 0002:00003bb0       ??_C@_07HMINABEO@logfile@  00468bb0     sv_ccmds.obj
 0002:00003bb8       ??_C@_09CGEJNOPJ@qconsole_@ 00468bb8     sv_ccmds.obj
 0002:00003bc4       ??_C@_0BD@PICELGHK@File?5logging?5off?4?6@ 00468bc4     sv_ccmds.obj
 0002:00003bd8       ??_C@_07PMJAFAE@console@   00468bd8     sv_ccmds.obj
 0002:00003be0       ??_C@_09KCAOJJNJ@logerrors@ 00468be0     sv_ccmds.obj
 0002:00003bec       ??_C@_07OPECNHEP@qerror_@  00468bec     sv_ccmds.obj
 0002:00003bf4       ??_C@_0BE@HEBFGGHE@Error?5logging?5off?4?6@ 00468bf4     sv_ccmds.obj
 0002:00003c08       ??_C@_06EOMHCNPI@errors@   00468c08     sv_ccmds.obj
 0002:00003c10       ??_C@_07GHOCLHPK@logrcon@  00468c10     sv_ccmds.obj
 0002:00003c18       ??_C@_05MKGKLPOP@rcon_@    00468c18     sv_ccmds.obj
 0002:00003c20       ??_C@_0BD@BJMKDFCE@Rcon?5logging?5off?4?6@ 00468c20     sv_ccmds.obj
 0002:00003c34       ??_C@_04CLKJCJJE@rcon@     00468c34     sv_ccmds.obj
 0002:00003c3c       ??_C@_09EMDAFBDE@logtelnet@ 00468c3c     sv_ccmds.obj
 0002:00003c48       ??_C@_08DEKNEAME@qtelnet_@ 00468c48     sv_ccmds.obj
 0002:00003c54       ??_C@_0BF@FJBMINOM@Telnet?5logging?5off?4?6@ 00468c54     sv_ccmds.obj
 0002:00003c6c       ??_C@_06KAPJOFBF@telnet@   00468c6c     sv_ccmds.obj
 0002:00003c74       ??_C@_0M@FHMLJLB@fraglogfile@ 00468c74     sv_ccmds.obj
 0002:00003c80       ??_C@_05OAKDANOM@frag_@    00468c80     sv_ccmds.obj
 0002:00003c88       ??_C@_0BI@JPIIEAHH@Frag?5file?5logging?5off?4?6@ 00468c88     sv_ccmds.obj
 0002:00003ca0       ??_C@_05NJJCGGEC@frags@    00468ca0     sv_ccmds.obj
 0002:00003ca8       ??_C@_0L@FOOLIBAG@logplayers@ 00468ca8     sv_ccmds.obj
 0002:00003cb4       ??_C@_07CLFPDDEC@player_@  00468cb4     sv_ccmds.obj
 0002:00003cbc       ??_C@_0BF@BIGOMLAE@Player?5logging?5off?4?6@ 00468cbc     sv_ccmds.obj
 0002:00003cd4       ??_C@_07BCGOFIOM@players@  00468cd4     sv_ccmds.obj
 0002:00003cdc       ??_C@_0P@DEJMAMB@modfraglogfile@ 00468cdc     sv_ccmds.obj
 0002:00003cec       ??_C@_08GMHGAEPD@modfrag_@ 00468cec     sv_ccmds.obj
 0002:00003cf8       ??_C@_0BM@PKPFMHCG@Mod?5frag?5file?5logging?5off?4?6@ 00468cf8     sv_ccmds.obj
 0002:00003d14       ??_C@_08FFEHGPFN@modfrags@ 00468d14     sv_ccmds.obj
 0002:00003d20       ??_C@_0CA@FEBOLPLK@Userid?5?$CFi?5is?5not?5on?5the?5server?6@ 00468d20     sv_ccmds.obj
 0002:00003d40       ??_C@_0CH@OIEMPIPJ@Cheats?5are?5not?5allowed?5on?5this?5@ 00468d40     sv_ccmds.obj
 0002:00003d68       ??_C@_0N@POKEKLLJ@godmode?5OFF?6@ 00468d68     sv_ccmds.obj
 0002:00003d78       ??_C@_0M@MCLKHHDH@godmode?5ON?6@ 00468d78     sv_ccmds.obj
 0002:00003d84       ??_C@_0L@MDMNIPJN@noclip?5ON?6@ 00468d84     sv_ccmds.obj
 0002:00003d90       ??_C@_0M@MIKGJGLH@noclip?5OFF?6@ 00468d90     sv_ccmds.obj
 0002:00003d9c       ??_C@_0M@BCKNFHAB@flymode?5ON?6@ 00468d9c     sv_ccmds.obj
 0002:00003da8       ??_C@_0N@DBMOCJAA@flymode?5OFF?6@ 00468da8     sv_ccmds.obj
 0002:00003db8       ??_C@_0CC@CPMENJK@?2newmap?2?$CFs?2?2?2?2?$CFd?9?$CFd?9?$CFd?5?$CFd?3?$CFd?3?$CFd@ 00468db8     sv_ccmds.obj
 0002:00003ddc       ??_C@_06JMKHDEMO@devmap@   00468ddc     sv_ccmds.obj
 0002:00003de4       ??_C@_0BE@MDHDLMLB@changing?6reconnect?6@ 00468de4     sv_ccmds.obj
 0002:00003df8       ??_C@_0DP@GLNOHJOF@map?5?$DMlevelname?$DO?5?$FL?$DMentityfile?$DO?$FN?5@ 00468df8     sv_ccmds.obj
 0002:00003e38       ??_C@_0BI@GJIHBJLA@ls?5?$DMdirectory?$DO?5?$DMmatch?$DO?6@ 00468e38     sv_ccmds.obj
 0002:00003e50       ??_C@_03LOJJKLGJ@?4?4?1@   00468e50     sv_ccmds.obj
 0002:00003e54       ??_C@_04BKGODLLN@?1?4?4?1@ 00468e54     sv_ccmds.obj
 0002:00003e5c       ??_C@_03BPDOPNEN@?1?4?4@   00468e5c     sv_ccmds.obj
 0002:00003e60       ??_C@_0BD@CEDABNKB@Unable?5to?5list?5?$CFs?6@ 00468e60     sv_ccmds.obj
 0002:00003e74       ??_C@_0BD@LEGJMNBN@Content?5of?5?$CFs?1?$CK?4?$CK?6@ 00468e74     sv_ccmds.obj
 0002:00003e88       ??_C@_02FNAGIBCP@?4?$CK@   00468e88     sv_ccmds.obj
 0002:00003e8c       ??_C@_09NNFFAIAK@No?5files?6@ 00468e8c     sv_ccmds.obj
 0002:00003e98       ??_C@_05PHKAGDP@?9?5?$CFs?6@ 00468e98     sv_ccmds.obj
 0002:00003ea0       ??_C@_0BE@NHEGPAKM@?$CFs?5?$CF?40fKB?5?$CI?$CF?42fMB?$CJ?6@ 00468ea0     sv_ccmds.obj
 0002:00003eb4       ??_C@_07MFPDPCCA@?$CFs?5?$CFdB?6@ 00468eb4     sv_ccmds.obj
 0002:00003ebc       ??_C@_0CC@GFPJDEMF@Total?3?5?$CFd?5files?0?5?$CF?40fKB?5?$CI?$CF?42fMB@ 00468ebc     sv_ccmds.obj
 0002:00003ee0       ??_C@_0BD@DNBMNOIH@rmdir?5?$DMdirectory?$DO?6@ 00468ee0     sv_ccmds.obj
 0002:00003ef4       ??_C@_0BC@IEBHHNPJ@Unable?5to?5remove?6@ 00468ef4     sv_ccmds.obj
 0002:00003f08       ??_C@_0CD@OIPJEALL@Directory?5?$CFs?5successfully?5remov@ 00468f08     sv_ccmds.obj
 0002:00003f2c       ??_C@_0BP@GGBJFBHC@Unable?5to?5remove?5directory?5?$CFs?6@ 00468f2c     sv_ccmds.obj
 0002:00003f50       ??_C@_0FA@CDEMGDB@rm?5?$DMdirectory?$DO?5?$HL?$DMfilename?$DO?5?$HM?5?$CK?$DM@ 00468f50     sv_ccmds.obj
 0002:00003fa0       ??_C@_0BA@DHAHMHNB@Removing?5?$CFs?4?4?4?6@ 00468fa0     sv_ccmds.obj
 0002:00003fb0       ??_C@_0BC@OCCGAADA@?$CFd?5files?5removed?6@ 00468fb0     sv_ccmds.obj
 0002:00003fc4       ??_C@_0BD@NACOBON@No?5matching?5found?6@ 00468fc4     sv_ccmds.obj
 0002:00003fd8       ??_C@_0BO@MEABNAIF@File?5?$CFs?5successfully?5removed?6@ 00468fd8     sv_ccmds.obj
 0002:00003ff8       ??_C@_0BK@GBNGLMKP@Unable?5to?5remove?5file?5?$CFs?6@ 00468ff8     sv_ccmds.obj
 0002:00004014       ??_C@_0BF@FCOEDHDI@__output_temp_file__@ 00469014     sv_ccmds.obj
 0002:0000402c       ??_C@_0BI@FLMBBAOO@localcommand?5?$FLcommand?$FN?6@ 0046902c     sv_ccmds.obj
 0002:00004044       ??_C@_0L@IJIBHCFE@?$DO?5?$CFs?52?$DO?$CG1?6@ 00469044     sv_ccmds.obj
 0002:00004050       ??_C@_0BA@HNJOFDPH@command?5failed?6@ 00469050     sv_ccmds.obj
 0002:00004060       ??_C@_02BMJICGCB@rt@       00469060     sv_ccmds.obj
 0002:00004064       ??_C@_08IOIBHJCN@?$CIempty?$CJ?6@ 00469064     sv_ccmds.obj
 0002:00004070       ??_C@_0BI@ICKLCOAG@kick?5?$DMuserid?$DO?5?$FLreason?$FN?6@ 00469070     sv_ccmds.obj
 0002:00004088       ??_C@_02GFKOMOKH@?5?$CI@   00469088     sv_ccmds.obj
 0002:0000408c       ??_C@_01PKGAHCOL@?$CJ@     0046908c     sv_ccmds.obj
 0002:00004090       ??_C@_0BO@JHPIOLKL@Couldn?8t?5find?5user?5number?5?$CFi?6@ 00469090     sv_ccmds.obj
 0002:000040b0       ??_C@_0BB@BKNEHGBI@?$CFs?5was?5kicked?$CFs?6@ 004690b0     sv_ccmds.obj
 0002:000040c4       ??_C@_0CB@MCJNPPMB@You?5were?5kicked?5from?5the?5game?$CFs@ 004690c4     sv_ccmds.obj
 0002:000040e8       ??_C@_07FCEEMPGK@kick?$CFs?6@ 004690e8     sv_ccmds.obj
 0002:000040f0       ??_C@_0FA@HJJFEJKL@usage?3?5cuff?5?$DMuserid?1name?$DO?5?$DMminu@ 004690f0     sv_ccmds.obj
 0002:00004140       ??_C@_0BH@KGPGHMON@Couldn?8t?5find?5user?5?$CFs?6@ 00469140     sv_ccmds.obj
 0002:00004158       ??_C@_02LMMGGCAJ@?3?5@     00469158     sv_ccmds.obj
 0002:0000415c       ??_C@_0CA@PGENDJDD@?$CFs?5cuffed?5for?5?$CF?41f?5minutes?$CFs?$CFs?6@ 0046915c     sv_ccmds.obj
 0002:0000417c       ??_C@_02PHMGELLB@?6?6@     0046917c     sv_ccmds.obj
 0002:00004180       ??_C@_0CF@PNKFDPB@You?5are?5cuffed?5for?5?$CF?41f?5minutes@ 00469180     sv_ccmds.obj
 0002:000041a8       ??_C@_0P@CIMJMONI@?$CFs?5un?9cuffed?4?6@ 004691a8     sv_ccmds.obj
 0002:000041b8       ??_C@_0FA@KBGCJKGM@usage?3?5mute?5?$DMuserid?1name?$DO?5?$DMminu@ 004691b8     sv_ccmds.obj
 0002:00004208       ??_C@_0BP@EAKHNABJ@?$CFs?5muted?5for?5?$CF?41f?5minutes?$CFs?$CFs?6@ 00469208     sv_ccmds.obj
 0002:00004228       ??_C@_0CE@GOBCHNIF@You?5are?5muted?5for?5?$CF?41f?5minutes?$CF@ 00469228     sv_ccmds.obj
 0002:0000424c       ??_C@_0O@DMOOKIB@?$CFs?5un?9muted?4?6@ 0046924c     sv_ccmds.obj
 0002:0000425c       ??_C@_0BF@PEFEBLBK@penaltyremove?5?$FLnum?$FN?6@ 0046925c     sv_ccmds.obj
 0002:00004274       ??_C@_09HBKBHJKE@Removed?4?6@ 00469274     sv_ccmds.obj
 0002:00004280       ??_C@_0CA@IMEGKEKC@Didn?8t?5find?5penalty?5filter?5?$CFi?4?6@ 00469280     sv_ccmds.obj
 0002:000042a0       ??_C@_0BG@BFHEBNNN@Active?5Penalty?5List?3?6@ 004692a0     sv_ccmds.obj
 0002:000042b8       ??_C@_0BM@FKNIBLDL@?$CFi?5?$CFs?5mute?5?$CIremaining?3?5?$CFd?$CJ?6@ 004692b8     sv_ccmds.obj
 0002:000042d4       ??_C@_0BM@BIDEDMLL@?$CFi?5?$CFs?5cuff?5?$CIremaining?3?5?$CFd?$CJ?6@ 004692d4     sv_ccmds.obj
 0002:000042f0       ??_C@_0BF@CFABIFEC@Saved?5Penalty?5List?3?6@ 004692f0     sv_ccmds.obj
 0002:00004308       ??_C@_04IOCNJLNK@Mute@     00469308     sv_ccmds.obj
 0002:00004310       ??_C@_04FJCABGG@Cuff@      00469310     sv_ccmds.obj
 0002:00004318       ??_C@_07NBCGADJA@Unknown@  00469318     sv_ccmds.obj
 0002:00004320       ??_C@_0CI@DHNHCGOC@?$CFi?3?5?$CFs?5for?5?$CFi?4?$CFi?4?$CFi?4?$CFi?5?$CIremaini@ 00469320     sv_ccmds.obj
 0002:00004348       ??_C@_0BO@PDLMCIEM@Usage?3?5nslookup?5?$DMIP?5address?$DO?6@ 00469348     sv_ccmds.obj
 0002:00004368       ??_C@_0BK@JHKACLKM@Name?3?5?5?5?5?$CFs?6Address?3?5?5?$CFs?6@ 00469368     sv_ccmds.obj
 0002:00004384       ??_C@_0BF@EIFIHADG@Couldn?8t?5resolve?5?$CFs?6@ 00469384     sv_ccmds.obj
 0002:000043a0       ??_C@_0LH@JNHNPADA@net?5address?5?5?5?5?5?5?5?5?5?5?5?5?5?5?5?5?5?3?5?$CF@ 004693a0     sv_ccmds.obj
 0002:00004458       ??_C@_0IN@FPAGNBCM@name?5?5?5?5?5?5?5?5?5?5?5?5?5ping?5frags?5?5?5i@ 00469458     sv_ccmds.obj
 0002:000044e8       ??_C@_0BJ@CBBKHKJB@?$CF?916s?5?$CF4i?5?$CF5i?5?$CF6i?5?$CF?922s?5@ 004694e8     sv_ccmds.obj
 0002:00004504       ??_C@_05EOCILDOG@?$CF?915s@ 00469504     sv_ccmds.obj
 0002:0000450c       ??_C@_03KJMMOONA@?$CIs?$CJ@ 0046950c     sv_ccmds.obj
 0002:00004510       ??_C@_0N@PFAIBKFC@?5CONNECTING?6@ 00469510     sv_ccmds.obj
 0002:00004520       ??_C@_08BGPFCBOB@?5ZOMBIE?6@ 00469520     sv_ccmds.obj
 0002:0000452c       ??_C@_0CE@IFMIMHHD@name?5?5?5?5?5?5?5?5?5?5?5?5?5?5?5ping?5frags?5?5@ 0046952c     sv_ccmds.obj
 0002:00004550       ??_C@_0L@PPBDPEEC@?5?5address?6@ 00469550     sv_ccmds.obj
 0002:0000455c       ??_C@_0L@GAOBBILP@?5?5real?5ip?6@ 0046955c     sv_ccmds.obj
 0002:00004568       ??_C@_0CG@BNFNPMFL@?9?9?9?9?9?9?9?9?9?9?9?9?9?9?9?9?9?9?5?9?9?9?9?5?9?9?9?9?9?5?9@ 00469568     sv_ccmds.obj
 0002:00004590       ??_C@_04IPGLOJNF@?5?$CIs?$CJ@ 00469590     sv_ccmds.obj
 0002:00004598       ??_C@_0BM@FDIBCNCL@?$CF?918s?5?$CF4i?5?$CF5i?5?$CF6s?5?$CFs?6?$CF?936s?6@ 00469598     sv_ccmds.obj
 0002:000045b4       ??_C@_06NLLNHLPK@?$CF?936s?6@ 004695b4     sv_ccmds.obj
 0002:000045bc       ??_C@_0M@DCNHNBEK@CONNECTING?6@ 004695bc     sv_ccmds.obj
 0002:000045c8       ??_C@_07BHCPGIIF@ZOMBIE?6@ 004695c8     sv_ccmds.obj
 0002:000045d0       ??_C@_05EMPKJILD@?4bsp$@   004695d0     sv_ccmds.obj
 0002:000045d8       ??_C@_08PHKCAKBF@id1?1maps@ 004695d8     sv_ccmds.obj
 0002:000045e4       ??_C@_07JHMJIJCB@qw?1maps@ 004695e4     sv_ccmds.obj
 0002:000045ec       ??_C@_09KIHOHKKG@console?3?5@ 004695ec     sv_ccmds.obj
 0002:000045f8       ??_C@_0L@ILDAINPG@deathmatch@ 004695f8     sv_ccmds.obj
 0002:00004604       ??_C@_0BH@LAHBCPJF@Server?5info?5settings?3?6@ 00469604     sv_ccmds.obj
 0002:0000461c       ??_C@_08PCIKBCJE@?$FL?$CFd?1?$CFd?$FN?6@ 0046961c     sv_ccmds.obj
 0002:00004628       ??_C@_0BF@CLMIKEOA@Serverinfo?5?$CFs?3?5?$CC?$CFs?$CC?6@ 00469628     sv_ccmds.obj
 0002:00004640       ??_C@_0BA@HGBNFHMA@No?5such?5key?5?$CFs?6@ 00469640     sv_ccmds.obj
 0002:00004650       ??_C@_0CJ@ICJJMDDG@usage?3?5serverinfo?5?$FL?5?$DMkey?$DO?5?$FL?5?$DMva@ 00469650     sv_ccmds.obj
 0002:0000467c       ??_C@_0CD@JNCBJJNC@Star?5variables?5cannot?5be?5change@ 0046967c     sv_ccmds.obj
 0002:000046a0       ??_C@_0BG@MIMOGIIF@Local?5info?5settings?3?6@ 004696a0     sv_ccmds.obj
 0002:000046b8       ??_C@_0BE@BINPODNH@Localinfo?5?$CFs?3?5?$CC?$CFs?$CC?6@ 004696b8     sv_ccmds.obj
 0002:000046cc       ??_C@_0CE@PGJLIMKB@usage?3?5localinfo?5?$FL?5?$DMkey?$DO?5?$DMvalue@ 004696cc     sv_ccmds.obj
 0002:000046f0       ??_C@_0BG@CHOMLHKA@Usage?3?5user?5?$DMuserid?$DO?6@ 004696f0     sv_ccmds.obj
 0002:00004708       ??_C@_0BG@CDPIPKHH@Current?5?$CKgamedir?3?5?$CFs?6@ 00469708     sv_ccmds.obj
 0002:00004720       ??_C@_0CA@JCBFCNLA@Usage?3?5sv_gamedir?5?$DMnewgamedir?$DO?6@ 00469720     sv_ccmds.obj
 0002:00004740       ??_C@_0DC@PPMNEPCC@?$CKGamedir?5should?5be?5a?5single?5fil@ 00469740     sv_ccmds.obj
 0002:00004778       ??_C@_0FD@KCCKJFDJ@Current?5floodprot?5settings?3?5?6Af@ 00469778     sv_ccmds.obj
 0002:000047cc       ??_C@_0BI@EEGFNIIM@No?5floodprots?5enabled?4?6@ 004697cc     sv_ccmds.obj
 0002:000047e8       ??_C@_0EK@BBMHOFA@Usage?3?5floodprot?5?$DM?$CD?5of?5messages@ 004697e8     sv_ccmds.obj
 0002:00004838       ??_C@_0EB@HPIKCLHM@Use?5floodprotmsg?5to?5set?5a?5custo@ 00469838     sv_ccmds.obj
 0002:0000487c       ??_C@_0CF@JCINOACG@All?5values?5must?5be?5positive?5num@ 0046987c     sv_ccmds.obj
 0002:000048a4       ??_C@_0CD@KFEBLIHC@Can?5only?5track?5up?5to?510?5message@ 004698a4     sv_ccmds.obj
 0002:000048c8       ??_C@_0BB@HFEHFOLJ@Current?5msg?3?5?$CFs?6@ 004698c8     sv_ccmds.obj
 0002:000048dc       ??_C@_0CB@DPEEOCML@Usage?3?5floodprotmsg?5?$CC?$DMmessage?$DO?$CC@ 004698dc     sv_ccmds.obj
 0002:00004900       ??_C@_0BF@EMPHAJOE@Current?5gamedir?3?5?$CFs?6@ 00469900     sv_ccmds.obj
 0002:00004918       ??_C@_0BJ@COJJLFIC@Usage?3?5gamedir?5?$DMnewdir?$DO?6@ 00469918     sv_ccmds.obj
 0002:00004934       ??_C@_0BC@KDCDMCPK@userid?5not?5found?6@ 00469934     sv_ccmds.obj
 0002:00004948       ??_C@_08KEHJIFKD@?$CFs?1snap?1@ 00469948     sv_ccmds.obj
 0002:00004954       ??_C@_09MCFNONLD@?$CFd?900?4pcx@ 00469954     sv_ccmds.obj
 0002:00004960       ??_C@_0L@CCGMJCMC@?$CFs?1snap?1?$CFs@ 00469960     sv_ccmds.obj
 0002:0000496c       ??_C@_0CP@KPMPCJEN@Snap?3?5Couldn?8t?5create?5a?5file?0?5c@ 0046996c     sv_ccmds.obj
 0002:0000499c       ??_C@_09JGKFHPCL@cmd?5snap?6@ 0046999c     sv_ccmds.obj
 0002:000049a8       ??_C@_0CB@GEJGOPP@Requesting?5snap?5from?5user?5?$CFd?4?4?4@ 004699a8     sv_ccmds.obj
 0002:000049cc       ??_C@_0BH@FPDHBEDB@Usage?3?5?5snap?5?$DMuserid?$DO?6@ 004699cc     sv_ccmds.obj
 0002:000049e4       ??_C@_0DE@LDBFGHEH@master_rcon_password?5can?5be?5set@ 004699e4     sv_ccmds.obj
 0002:00004a18       ??_C@_07CDPFAOLM@?9cheats@ 00469a18     sv_ccmds.obj
 0002:00004a20       ??_C@_02BFICIOJL@ON@       00469a20     sv_ccmds.obj
 0002:00004a24       ??_C@_07CJDAAHKF@?$CKcheats@ 00469a24     sv_ccmds.obj
 0002:00004a2c       ??_C@_08JAHMPPNJ@nslookup@ 00469a2c     sv_ccmds.obj
 0002:00004a38       ??_C@_0L@BBFMFKNP@check_maps@ 00469a38     sv_ccmds.obj
 0002:00004a44       ??_C@_04DKHMMKCM@snap@     00469a44     sv_ccmds.obj
 0002:00004a4c       ??_C@_07FCOODLOE@snapall@  00469a4c     sv_ccmds.obj
 0002:00004a54       ??_C@_04FNIJDBCC@kick@     00469a54     sv_ccmds.obj
 0002:00004a5c       ??_C@_05IHDOMKOF@rmdir@    00469a5c     sv_ccmds.obj
 0002:00004a64       ??_C@_02IHJIIPDJ@rm@       00469a64     sv_ccmds.obj
 0002:00004a68       ??_C@_02EFGBDOJM@ls@       00469a68     sv_ccmds.obj
 0002:00004a6c       ??_C@_04EPOMLENO@mute@     00469a6c     sv_ccmds.obj
 0002:00004a74       ??_C@_04MEFDCOGC@cuff@     00469a74     sv_ccmds.obj
 0002:00004a7c       ??_C@_0M@LBJDHGMB@penaltylist@ 00469a7c     sv_ccmds.obj
 0002:00004a88       ??_C@_0O@DLJKNGAA@penaltyremove@ 00469a88     sv_ccmds.obj
 0002:00004a98       ??_C@_0BE@HKLFHLJ@?9enablelocalcommand@ 00469a98     sv_ccmds.obj
 0002:00004aac       ??_C@_0N@EFFACIKF@localcommand@ 00469aac     sv_ccmds.obj
 0002:00004abc       ??_C@_03HBNNNHNM@map@      00469abc     sv_ccmds.obj
 0002:00004ac0       ??_C@_09BPBGLMCC@setmaster@ 00469ac0     sv_ccmds.obj
 0002:00004acc       ??_C@_09NCPIAHOP@heartbeat@ 00469acc     sv_ccmds.obj
 0002:00004ad8       ??_C@_04EMMDIJJL@save@     00469ad8     sv_ccmds.obj
 0002:00004ae0       ??_C@_04EONOHKEP@load@     00469ae0     sv_ccmds.obj
 0002:00004ae8       ??_C@_03BANJEMDJ@say@      00469ae8     sv_ccmds.obj
 0002:00004aec       ??_C@_04KNNLNNGO@quit@     00469aec     sv_ccmds.obj
 0002:00004af4       ??_C@_07LDHOHMPD@restart@  00469af4     sv_ccmds.obj
 0002:00004afc       ??_C@_03DKFAMNOH@god@      00469afc     sv_ccmds.obj
 0002:00004b00       ??_C@_04BMBHJADG@give@     00469b00     sv_ccmds.obj
 0002:00004b08       ??_C@_06IHODGGMJ@noclip@   00469b08     sv_ccmds.obj
 0002:00004b10       ??_C@_09LJADEHNM@localinfo@ 00469b10     sv_ccmds.obj
 0002:00004b1c       ??_C@_0L@OJMFMOP@serverinfo@ 00469b1c     sv_ccmds.obj
 0002:00004b28       ??_C@_04CCHAHKJA@user@     00469b28     sv_ccmds.obj
 0002:00004b30       ??_C@_07GGMBKBFD@gamedir@  00469b30     sv_ccmds.obj
 0002:00004b38       ??_C@_0L@FJBIIAFM@sv_gamedir@ 00469b38     sv_ccmds.obj
 0002:00004b44       ??_C@_09KNLHOKGO@floodprot@ 00469b44     sv_ccmds.obj
 0002:00004b50       ??_C@_0N@GJKNPHJ@floodprotmsg@ 00469b50     sv_ccmds.obj
 0002:00004b60       ??_C@_0BF@EJGADEBH@master_rcon_password@ 00469b60     sv_ccmds.obj
 0002:00004b78       ??_C@_0BA@OMBDGHMG@sv_demoUseCache@ 00469b78     sv_demo.obj
 0002:00004b88       ??_C@_0BB@FMEEGNAB@sv_demoCacheSize@ 00469b88     sv_demo.obj
 0002:00004b9c       ??_C@_0BC@IPMGLFG@sv_demoMaxDirSize@ 00469b9c     sv_demo.obj
 0002:00004bb0       ??_C@_06DHHINOLJ@102400@   00469bb0     sv_demo.obj
 0002:00004bb8       ??_C@_0BA@PIALPMO@sv_demoClearOld@ 00469bb8     sv_demo.obj
 0002:00004bc8       ??_C@_0L@MJFKBEDD@sv_demoDir@ 00469bc8     sv_demo.obj
 0002:00004bd4       ??_C@_05CFPGCNL@demos@     00469bd4     sv_demo.obj
 0002:00004bdc       ??_C@_0O@KKALIFFB@sv_demoDirAlt@ 00469bdc     sv_demo.obj
 0002:00004bec       ??_C@_0L@MJINNKDI@sv_demofps@ 00469bec     sv_demo.obj
 0002:00004bf8       ??_C@_02PJNFELNH@30@       00469bf8     sv_demo.obj
 0002:00004bfc       ??_C@_0P@IHCPJGFE@sv_demoIdlefps@ 00469bfc     sv_demo.obj
 0002:00004c0c       ??_C@_02PKFBJPLJ@10@       00469c0c     sv_demo.obj
 0002:00004c10       ??_C@_0N@CCBPCCBL@sv_demopings@ 00469c10     sv_demo.obj
 0002:00004c20       ??_C@_01EKENIIDA@3@        00469c20     sv_demo.obj
 0002:00004c24       ??_C@_0P@KOBHJKPF@sv_demoMaxSize@ 00469c24     sv_demo.obj
 0002:00004c34       ??_C@_05CMNJKNFB@20480@    00469c34     sv_demo.obj
 0002:00004c3c       ??_C@_0BC@NDCECNEF@sv_demoExtraNames@ 00469c3c     sv_demo.obj
 0002:00004c50       ??_C@_0O@BFNAJOCG@sv_demoPrefix@ 00469c50     sv_demo.obj
 0002:00004c60       ??_C@_0O@HOJNMOND@sv_demoSuffix@ 00469c60     sv_demo.obj
 0002:00004c70       ??_C@_0L@HCMPICFD@sv_demotxt@ 00469c70     sv_demo.obj
 0002:00004c7c       ??_C@_0BC@EGFPNIEM@sv_onRecordFinish@ 00469c7c     sv_demo.obj
 0002:00004c90       ??_C@_0BA@LOJLKGK@sv_onDemoRemove@ 00469c90     sv_demo.obj
 0002:00004ca0       ??_C@_0O@CBNEACON@sv_demoRegexp@ 00469ca0     sv_demo.obj
 0002:00004cb0       ??_C@_0BM@DJLBNFDG@?2?4mvd?$CI?2?4?$CIgz?$HMbz2?$HMrar?$HMzip?$CJ?$CJ?$DP$@ 00469cb0     sv_demo.obj
 0002:00004ccc       ??_C@_0BA@BLFACNIO@sv_silentrecord@ 00469ccc     sv_demo.obj
 0002:00004cdc       ??_C@_0N@CEBIOOMI@extralogname@ 00469cdc     sv_demo.obj
 0002:00004cec       ??_C@_05EPBFLBEJ@unset@    00469cec     sv_demo.obj
 0002:00004cf4       ??_C@_03CLFHJCDC@txt@      00469cf4     sv_demo.obj
 0002:00004cf8       ??_C@_0BL@IFAFPHPM@DestFlush?3?5fwrite?$CI?$CJ?5error?6@ 00469cf8     sv_demo.obj
 0002:00004d14       ??_C@_0BL@JELJGHHC@DestFlush?3?5stream?5timeout?6@ 00469d14     sv_demo.obj
 0002:00004d30       ??_C@_0BM@IINAKBAF@DestFlush?3?5error?5on?5stream?6@ 00469d30     sv_demo.obj
 0002:00004d4c       ??_C@_0CB@KODPJHPH@DestFlush?3?5encountered?5bad?5dest@ 00469d4c     sv_demo.obj
 0002:00004d70       ??_C@_0DC@HOEHEDGI@DestFlush?3?5sv_demoMaxSize?5?$DN?5?$CFdb@ 00469d70     sv_demo.obj
 0002:00004da4       ??_C@_0BP@BIDBFMCH@DemoWriteDest?3?5fwrite?$CI?$CJ?5error?6@ 00469da4     sv_demo.obj
 0002:00004dc4       ??_C@_0CH@JBHOFGFC@DemoWriteDest?3?5cache?5overflow?5?$CF@ 00469dc4     sv_demo.obj
 0002:00004dec       ??_C@_0CF@FLLDJBMJ@DemoWriteDest?3?5encountered?5bad?5@ 00469dec     sv_demo.obj
 0002:00004e14       ??_C@_0DK@FKIDAIGO@MVDWrite_Begin?3?5bad?5demo?5messag@ 00469e14     sv_demo.obj
 0002:00004e50       ??_C@_0CL@JBLLFENC@MVDWrite_Begin?3?5bad?5demo?5messag@ 00469e50     sv_demo.obj
 0002:00004e7c       ??_C@_0BH@NGJIFAMK@MVDWrite_Begin?3?5error?6@ 00469e7c     sv_demo.obj
 0002:00004e94       ??_C@_0DA@JNGCDHMF@SV_MVDWritePackets?3?5error?3?5in?5_@ 00469e94     sv_demo.obj
 0002:00004ec4       ??_C@_0CD@DLCINBPG@SV_MVDWritePackets?3?5error?3?5in?5m@ 00469ec4     sv_demo.obj
 0002:00004ee8       ??_C@_0CP@DAOEGHJB@SV_MVDWritePackets?3?5error?3?5in?5s@ 00469ee8     sv_demo.obj
 0002:00004f18       ??_C@_0BL@ODJKKDIN@SV_MVDWritePackets?3?5error?6@ 00469f18     sv_demo.obj
 0002:00004f34       ??_C@_0CE@FKJJHCPE@SV_InitRecordFile?3?5Demo?5name?3?5?$CC@ 00469f34     sv_demo.obj
 0002:00004f58       ??_C@_0BL@HELMBFIG@ERROR?3?5couldn?8t?5open?5?$CC?$CFs?$CC?6@ 00469f58     sv_demo.obj
 0002:00004f74       ??_C@_06HLKELJGF@memory@   00469f74     sv_demo.obj
 0002:00004f7c       ??_C@_04MDPPAFID@disk@     00469f7c     sv_demo.obj
 0002:00004f84       ??_C@_0CC@JLOMPOLN@Server?5starts?5recording?5?$CI?$CFs?$CJ?3?6?$CF@ 00469f84     sv_demo.obj
 0002:00004fa8       ??_C@_03CCGKKFHG@a?$CLt@   00469fa8     sv_demo.obj
 0002:00004fac       ??_C@_03FHBIKNDF@w?$CLt@   00469fac     sv_demo.obj
 0002:00004fb0       ??_C@_0CM@CLFMKFLH@SV_MVDStop?3?5Demo?5name?5for?5?8cmd?5@ 00469fb0     sv_demo.obj
 0002:00004fdc       ??_C@_0BH@IOAKDKEN@SV_MVDStop?3?5recursion?6@ 00469fdc     sv_demo.obj
 0002:00004ff4       ??_C@_0BH@FJJDMOAC@Not?5recording?5a?5demo?4?6@ 00469ff4     sv_demo.obj
 0002:0000500c       ??_C@_0CP@KDJFCOLP@Error?5in?5MVD?1QTV?5recording?0?5rec@ 0046a00c     sv_demo.obj
 0002:0000503c       ??_C@_0BC@NMCGPOHG@QTV?5disconnected?6@ 0046a03c     sv_demo.obj
 0002:00005050       ??_C@_0CJ@HHHJIFFO@Server?5recording?5canceled?0?5demo@ 0046a050     sv_demo.obj
 0002:0000507c       ??_C@_09MLOJJAGO@EndOfDemo@ 0046a07c     sv_demo.obj
 0002:00005088       ??_C@_0BM@JIOLPBOE@Server?5recording?5completed?6@ 0046a088     sv_demo.obj
 0002:000050a4       ??_C@_0DB@JMJOKJKJ@Server?5recording?5stopped?6Max?5de@ 0046a0a4     sv_demo.obj
 0002:000050d8       ??_C@_0CG@PCMIOFOP@MVD_PlayerReset?3?5wrong?5player?5n@ 0046a0d8     sv_demo.obj
 0002:00005100       ??_C@_0BF@FKGNFJNH@fullserverinfo?5?$CC?$CFs?$CC?6@ 0046a100     sv_demo.obj
 0002:00005118       ??_C@_0BA@CLMKJJNK@cmd?5spawn?5?$CFi?50?6@ 0046a118     sv_demo.obj
 0002:00005128       ??_C@_0CM@JGKCFONN@SV_MVD_SendInitialGamestate?3?5bu@ 0046a128     sv_demo.obj
 0002:00005154       ??_C@_06DOKDLOCB@skins?6@  0046a154     sv_demo.obj
 0002:0000515c       ??_C@_0BD@PGNLAEFI@record?5?$DMdemoname?$DO?6@ 0046a15c     sv_demo.obj
 0002:00005170       ??_C@_0BB@LGKMDAOB@Not?5active?5yet?4?6@ 0046a170     sv_demo.obj
 0002:00005184       ??_C@_06DIJPEION@?$CFs?$CFs?$CFs@ 0046a184     sv_demo.obj
 0002:0000518c       ??_C@_04NPINAMBI@?4mvd@    0046a18c     sv_demo.obj
 0002:00005194       ??_C@_0BH@OFHMNMEM@easyrecord?5?$FLdemoname?$FN?6@ 0046a194     sv_demo.obj
 0002:000051ac       ??_C@_07GOADCNJK@?$CFdon?$CFd_@ 0046a1ac     sv_demo.obj
 0002:000051b4       ??_C@_0BG@ILIKJNA@?$FL?$CFs?$FN_?$CFs_vs_?$FL?$CFs?$FN_?$CFs_?$CFs@ 0046a1b4     sv_demo.obj
 0002:000051cc       ??_C@_0M@BPHFHGGN@?$CFs_vs_?$CFs_?$CFs@ 0046a1cc     sv_demo.obj
 0002:000051d8       ??_C@_0BB@PBPGFIFJ@duel_?$CFs_vs_?$CFs_?$CFs@ 0046a1d8     sv_demo.obj
 0002:000051ec       ??_C@_0L@EKAILMFI@ffa_?$CFs?$CI?$CFd?$CJ@ 0046a1ec     sv_demo.obj
 0002:000051f8       ??_C@_05DCIGDGOD@?$FO?$CFs?$CFs@ 0046a1f8     sv_demo.obj
 0002:00005200       ??_C@_07GBMJIFPF@?$CFs_?$CF02i@ 0046a200     sv_demo.obj
 0002:00005208       ??_C@_0N@KOAFEDFO@?$CFs?1?$CFs?1?$CFs?4mvd@ 0046a208     sv_demo.obj
 0002:00005218       ??_C@_09BFHHNMGN@?$CFs?1?$CFs?4xml@ 0046a218     sv_demo.obj
 0002:00005224       ??_C@_0L@HMHHBLNK@?9democache@ 0046a224     sv_demo.obj
 0002:00005230       ??_C@_0DJ@GNGHJJAK@MVD_Init?3?5you?5must?5specify?5a?5si@ 0046a230     sv_demo.obj
 0002:0000526c       ??_C@_0CL@KLNIDOA@Minimum?5memory?5size?5for?5demo?5ca@ 0046a26c     sv_demo.obj
 0002:00005298       ??_C@_06KKGOIHDP@record@   0046a298     sv_demo.obj
 0002:000052a0       ??_C@_0L@DJBCMJDC@easyrecord@ 0046a2a0     sv_demo.obj
 0002:000052ac       ??_C@_04PEGFANN@stop@      0046a2ac     sv_demo.obj
 0002:000052b4       ??_C@_0O@FHGNCPFG@sv_demorecord@ 0046a2b4     sv_demo.obj
 0002:000052c4       ??_C@_0BC@EAHGKAAB@sv_demoeasyrecord@ 0046a2c4     sv_demo.obj
 0002:000052d8       ??_C@_0M@DFKKJJAD@sv_demostop@ 0046a2d8     sv_demo.obj
 0002:000052e4       ??_C@_06JDKABGKH@cancel@   0046a2e4     sv_demo.obj
 0002:000052ec       ??_C@_0O@GOKDLOMO@sv_democancel@ 0046a2ec     sv_demo.obj
 0002:000052fc       ??_C@_0O@KKNBGBHO@sv_lastscores@ 0046a2fc     sv_demo.obj
 0002:0000530c       ??_C@_0M@EDJIJAC@sv_demolist@ 0046a30c     sv_demo.obj
 0002:00005318       ??_C@_0N@PDADEDNB@sv_demolistr@ 0046a318     sv_demo.obj
 0002:00005328       ??_C@_0BB@LNHENALC@sv_demolistregex@ 0046a328     sv_demo.obj
 0002:0000533c       ??_C@_0O@PGEPAIKK@sv_demoremove@ 0046a33c     sv_demo.obj
 0002:0000534c       ??_C@_0BB@PDIPIHPB@sv_demonumremove@ 0046a34c     sv_demo.obj
 0002:00005360       ??_C@_0P@LCHJCHAI@sv_demoinfoadd@ 0046a360     sv_demo.obj
 0002:00005370       ??_C@_0BC@EGMGHBCF@sv_demoinforemove@ 0046a370     sv_demo.obj
 0002:00005384       ??_C@_0M@OCNFJEMK@sv_demoinfo@ 0046a384     sv_demo.obj
 0002:00005390       ??_C@_06OLONEIEH@script@   0046a390     sv_demo.obj
 0002:00005398       ??_C@_0DK@KPEEMJAI@Insufficient?5directory?5space?0?5i@ 0046a398     sv_demo_misc.obj
 0002:000053d4       ??_C@_0BH@HGOJJNCF@Clearing?5?$CFd?5old?5demos?6@ 0046a3d4     sv_demo_misc.obj
 0002:000053ec       ??_C@_0BH@MJJPPDGC@script?5?$CFs?5?$CC?$CFs?$CC?5?$CC?$CFs?$CC?5?$CFs@ 0046a3ec     sv_demo_misc.obj
 0002:00005404       ??_C@_0DH@OEBFNMKD@date?5?$CFs?6map?5?$CFs?6teamplay?5?$CFd?6deat@ 0046a404     sv_demo_misc.obj
 0002:0000543c       ??_C@_0CD@KLMKPONK@player1?3?5?$CFs?5?$CI?$CFi?$CJ?6player2?3?5?$CFs?5?$CI?$CF@ 0046a43c     sv_demo_misc.obj
 0002:00005460       ??_C@_0BN@NNDBIACM@duel?3?5?$CFs?5vs?5?$CFs?5?$EA?5?$CFs?5?9?5?$CFi?3?$CFi?6@ 0046a460     sv_demo_misc.obj
 0002:00005480       ??_C@_09EEGIPPIE@players?3?6@ 0046a480     sv_demo_misc.obj
 0002:0000548c       ??_C@_04FNFOFNLO@ffa?3@    0046a48c     sv_demo_misc.obj
 0002:00005494       ??_C@_0L@BBDOKAFE@?5?5?$CFs?5?$CI?$CFi?$CJ?6@ 0046a494     sv_demo_misc.obj
 0002:000054a0       ??_C@_08BHFPDGHN@?5?5?$CFs?$CI?$CFi?$CJ@ 0046a4a0     sv_demo_misc.obj
 0002:000054ac       ??_C@_06FIADFNPK@?5?$EA?5?$CFs?6@ 0046a4ac     sv_demo_misc.obj
 0002:000054b4       ??_C@_03ELLOKBAB@tp?3@     0046a4b4     sv_demo_misc.obj
 0002:000054b8       ??_C@_0O@EGMMIDDL@team?$FL?$CFi?$FN?5?$CFs?3?6@ 0046a4b8     sv_demo_misc.obj
 0002:000054c8       ??_C@_03EGKPCNHJ@?$CFs?$FL@ 0046a4c8     sv_demo_misc.obj
 0002:000054cc       ??_C@_08PBPJAJBN@?5?$CFs?$CI?$CFi?$CJ?5@ 0046a4cc     sv_demo_misc.obj
 0002:000054d8       ??_C@_07BLBMLCDF@?$FN?$CI?$CFi?$CJ?5?5@ 0046a4d8     sv_demo_misc.obj
 0002:000054e0       ??_C@_05LLBABKLL@?$EA?5?$CFs?6@ 0046a4e0     sv_demo_misc.obj
 0002:000054e8       ??_C@_0BN@DMJKIMIC@Listing?5content?5of?5?$CFs?1?$CFs?1?$CFs?6@ 0046a4e8     sv_demo_misc.obj
 0002:00005508       ??_C@_09CAIIBDFM@no?5demos?6@ 0046a508     sv_demo_misc.obj
 0002:00005514       ??_C@_0DG@ODLBIJEO@Sys_listdir?3?5pcre_compile?$CI?$CFs?$CJ?5e@ 0046a514     sv_demo_misc.obj
 0002:0000554c       ??_C@_0CP@NGNGEMBF@Sys_listdir?3?5pcre_exec?$CI?$CFs?0?5?$CFs?$CJ?5@ 0046a54c     sv_demo_misc.obj
 0002:0000557c       ??_C@_0BA@DAMBFNPN@?$CK?$CF4d?3?5?$CFs?5?$CI?$CFdk?$CJ?6@ 0046a57c     sv_demo_misc.obj
 0002:0000558c       ??_C@_0P@OICFNEBO@?$CF4d?3?5?$CFs?5?$CI?$CFdk?$CJ?6@ 0046a58c     sv_demo_misc.obj
 0002:0000559c       ??_C@_0BJ@IMFONDAI@?6directory?5size?3?5?$CF?41fMB?6@ 0046a59c     sv_demo_misc.obj
 0002:000055b8       ??_C@_0BJ@DBCKJACG@space?5available?3?5?$CF?41fMB?6@ 0046a5b8     sv_demo_misc.obj
 0002:000055d4       ??_C@_0CP@NGGHLJHC@SV_MVDNum?3?5where?5are?5?$CFd?5demos?5w@ 0046a5d4     sv_demo_misc.obj
 0002:00005604       ??_C@_0CP@KMCFDLPB@SV_MVDNum?3?5where?5are?5no?5demos?5w@ 0046a604     sv_demo_misc.obj
 0002:00005634       ??_C@_0DJ@PFMFDACO@SV_MVDName2Txt?3?5pcre_compile?$CI?$CFs@ 0046a634     sv_demo_misc.obj
 0002:00005670       ??_C@_0DC@ONEPIJDD@SV_MVDName2Txt?3?5pcre_exec?$CI?$CFs?0?5?$CF@ 0046a670     sv_demo_misc.obj
 0002:000056a8       ??_C@_0IG@JAGAHGLP@rmdemo?5?$DMdemoname?$DO?5?9?5removes?5the@ 0046a6a8     sv_demo_misc.obj
 0002:00005730       ??_C@_0BA@CADILMKM@removing?5?$CFs?4?4?4?6@ 0046a730     sv_demo_misc.obj
 0002:00005740       ??_C@_0BC@FHPEBBGI@?$CFd?5demos?5removed?6@ 0046a740     sv_demo_misc.obj
 0002:00005754       ??_C@_0BA@PKFNECG@no?5match?5found?6@ 0046a754     sv_demo_misc.obj
 0002:00005764       ??_C@_0BO@LKIFNEPH@demo?5?$CFs?5successfully?5removed?6@ 0046a764     sv_demo_misc.obj
 0002:00005784       ??_C@_0BE@EADIAOIG@script?5?$CFs?5?$CC?$CFs?$CC?5?$CC?$CFs?$CC@ 0046a784     sv_demo_misc.obj
 0002:00005798       ??_C@_0BK@JALGBJAF@unable?5to?5remove?5demo?5?$CFs?6@ 0046a798     sv_demo_misc.obj
 0002:000057b4       ??_C@_0P@OHFGNPND@rmdemonum?5?$DM?$CD?$DO?6@ 0046a7b4     sv_demo_misc.obj
 0002:000057c4       ??_C@_0BC@HPBONILJ@invalid?5demo?5num?6@ 0046a7c4     sv_demo_misc.obj
 0002:000057d8       ??_C@_0FF@JLLEEMFL@usage?3demoInfoAdd?5?$DMdemonum?$DO?5?$DMin@ 0046a7d8     sv_demo_misc.obj
 0002:00005830       ??_C@_02FKAPCJPD@?$CK?$CK@ 0046a830     sv_demo_misc.obj
 0002:00005834       ??_C@_03DOPCBAKB@a?$CLb@   0046a834     sv_demo_misc.obj
 0002:00005838       ??_C@_0BJ@LFDHOCNK@failed?5to?5open?5the?5file?6@ 0046a838     sv_demo_misc.obj
 0002:00005854       ??_C@_0BL@JHELPCDH@failed?5to?5open?5input?5file?6@ 0046a854     sv_demo_misc.obj
 0002:00005870       ??_C@_0CE@GGCBKGII@failed?5to?5read?5or?5empty?5input?5f@ 0046a870     sv_demo_misc.obj
 0002:00005894       ??_C@_0BG@GBAGMDIP@failed?5write?5to?5file?6@ 0046a894     sv_demo_misc.obj
 0002:000058b0       ??_C@_0EK@BJOFLBOL@usage?3demoInfoRemove?5?$DMdemonum?$DO?6@ 0046a8b0     sv_demo_misc.obj
 0002:000058fc       ??_C@_0BO@NEKEPHGC@failed?5to?5remove?5the?5file?5?$CFs?6@ 0046a8fc     sv_demo_misc.obj
 0002:0000591c       ??_C@_0BB@IIPJPMGP@file?5?$CFs?5removed?6@ 0046a91c     sv_demo_misc.obj
 0002:00005930       ??_C@_0EF@LNJKLHJP@usage?3?5demoinfo?5?$DMdemonum?$DO?6?$DMdemo@ 0046a930     sv_demo_misc.obj
 0002:00005978       ??_C@_0GN@PLKDPFAJ@usage?3?5lastscores?5?$FL?$DMnumlastdemo@ 0046a978     sv_demo_misc.obj
 0002:000059e8       ??_C@_0L@CBMKBMKN@No?5demos?4?6@ 0046a9e8     sv_demo_misc.obj
 0002:000059f4       ??_C@_0DL@MKNOHBIE@?$DMnumlastdemos?$DO?5was?5decreased?5to@ 0046a9f4     sv_demo_misc.obj
 0002:00005a30       ??_C@_0EJ@LFALMIGO@?$DMnumlastdemos?$DO?5was?5decreased?5to@ 0046aa30     sv_demo_misc.obj
 0002:00005a7c       ??_C@_0BI@JNEOHLJL@List?5of?5?$CFd?5last?5demos?3?6@ 0046aa7c     sv_demo_misc.obj
 0002:00005a94       ??_C@_04NBIFFPFH@?$CFi?4?5@ 0046aa94     sv_demo_misc.obj
 0002:00005a9c       ??_C@_01IDAFKMJL@_@        0046aa9c     sv_demo_misc.obj
 0002:00005aa0       ??_C@_0P@PBJAKPDJ@qtv_streamport@ 0046aaa0     sv_demo_qtv.obj
 0002:00005ab0       ??_C@_0P@DEOPKGAG@qtv_maxstreams@ 0046aab0     sv_demo_qtv.obj
 0002:00005ac0       ??_C@_0N@CMKKPMLM@qtv_password@ 0046aac0     sv_demo_qtv.obj
 0002:00005ad0       ??_C@_0BD@GJFOMLAO@qtv_pendingtimeout@ 0046aad0     sv_demo_qtv.obj
 0002:00005ae4       ??_C@_01BMBHCPLG@5@        0046aae4     sv_demo_qtv.obj
 0002:00005ae8       ??_C@_0P@GIPGAHHC@qtv_sayenabled@ 0046aae8     sv_demo_qtv.obj
 0002:00005af8       ??_C@_0BC@MAJMCJCM@qtv_streamtimeout@ 0046aaf8     sv_demo_qtv.obj
 0002:00005b0c       ??_C@_02IBONKJBH@45@       0046ab0c     sv_demo_qtv.obj
 0002:00005b10       ??_C@_07LHEPONKL@address@  0046ab10     sv_demo_qtv.obj
 0002:00005b18       ??_C@_08PAIFPLOP@streamid@ 0046ab18     sv_demo_qtv.obj
 0002:00005b24       ??_C@_0BG@DECEOINK@Connected?5to?5QTV?$CI?$CFs?$CJ?6@ 0046ab24     sv_demo_qtv.obj
 0002:00005b3c       ??_C@_0BC@KNPJEMAL@Connected?5to?5QTV?6@ 0046ab3c     sv_demo_qtv.obj
 0002:00005b50       ??_C@_0CM@KLEKCGMG@SV_MVDStream_Poll?3?5ioctl?5FIONBI@ 0046ab50     sv_demo_qtv.obj
 0002:00005b7c       ??_C@_0CO@CHBGEMGE@SV_MVDStream_Poll?3?5TCP_Set_KEEP@ 0046ab7c     sv_demo_qtv.obj
 0002:00005bb0       ??_C@_0HJ@CEJFNELM@QTVSV?51?6ERROR?3?5This?5server?5enfo@ 0046abb0     sv_demo_qtv.obj
 0002:00005c2c       ??_C@_0CI@GPNPFBPC@MVD?5streaming?5client?5connected?5@ 0046ac2c     sv_demo_qtv.obj
 0002:00005c54       ??_C@_0BG@OFPBMKBD@Pending?5dest?5timeout?6@ 0046ac54     sv_demo_qtv.obj
 0002:00005c6c       ??_C@_0DE@PAGALJLH@SV_MVD_RunPendingConnections?3?5s@ 0046ac6c     sv_demo_qtv.obj
 0002:00005ca0       ??_C@_03CKFODEJK@QTV@      0046aca0     sv_demo_qtv.obj
 0002:00005ca4       ??_C@_0BE@OCBFLJEA@qtv?0?5got?5?$CI?$CFs?$CJ?5?$CI?$CFs?$CJ?6@ 0046aca4     sv_demo_qtv.obj
 0002:00005cb8       ??_C@_07NCHCCDCP@VERSION@  0046acb8     sv_demo_qtv.obj
 0002:00005cc0       ??_C@_03DLBNMLKO@RAW@      0046acc0     sv_demo_qtv.obj
 0002:00005cc4       ??_C@_08KENNMKEI@PASSWORD@ 0046acc4     sv_demo_qtv.obj
 0002:00005cd0       ??_C@_04PDIIMFOK@AUTH@     0046acd0     sv_demo_qtv.obj
 0002:00005cd8       ??_C@_04OKGDLNCL@NONE@     0046acd8     sv_demo_qtv.obj
 0002:00005ce0       ??_C@_05ONKJAIHP@PLAIN@    0046ace0     sv_demo_qtv.obj
 0002:00005ce8       ??_C@_05ILNMANIM@CCITT@    0046ace8     sv_demo_qtv.obj
 0002:00005cf0       ??_C@_03HLHMHGOI@MD4@      0046acf0     sv_demo_qtv.obj
 0002:00005cf4       ??_C@_0CN@BPNJIII@qtv?3?5received?5unrecognised?5auth@ 0046acf4     sv_demo_qtv.obj
 0002:00005d24       ??_C@_06OAIFGEFJ@SOURCE@   0046ad24     sv_demo_qtv.obj
 0002:00005d2c       ??_C@_0M@JIMIKCDJ@COMPRESSION@ 0046ad2c     sv_demo_qtv.obj
 0002:00005d38       ??_C@_08IADBFPOB@USERINFO@ 0046ad38     sv_demo_qtv.obj
 0002:00005d44       ??_C@_0DM@PMFKKACE@QTVSV?51?6PERROR?3?5You?5need?5to?5pro@ 0046ad44     sv_demo_qtv.obj
 0002:00005d80       ??_C@_08GBHHIMAB@?$CFX?$CFX?$CFX?$CFX@ 0046ad80     sv_demo_qtv.obj
 0002:00005d8c       ??_C@_0CI@FIMCEOLK@QTVSV?51?6PERROR?3?5FTEQWSV?5bug?5det@ 0046ad8c     sv_demo_qtv.obj
 0002:00005db4       ??_C@_0CA@OKEFKEH@QTVSV?51?6PERROR?3?5Bad?5password?4?6?6@ 0046adb4     sv_demo_qtv.obj
 0002:00005dd4       ??_C@_0CA@JFONJNNI@QTVSV?51?6AUTH?3?5CCITT?6CHALLENGE?3?5@ 0046add4     sv_demo_qtv.obj
 0002:00005df4       ??_C@_0BO@GJEEECKK@QTVSV?51?6AUTH?3?5MD4?6CHALLENGE?3?5@ 0046adf4     sv_demo_qtv.obj
 0002:00005e14       ??_C@_0DN@IJOAIAEL@QTVSV?51?6PERROR?3?5Incompatible?5ve@ 0046ae14     sv_demo_qtv.obj
 0002:00005e54       ??_C@_0BA@OLFKHJMJ@QTVSV?51?6BEGIN?6?6@ 0046ae54     sv_demo_qtv.obj
 0002:00005e68       ??_C@_0HG@LNLLLNLP@QTVSV?51?6ERROR?3?5Can?8t?5init?5strea@ 0046ae68     sv_demo_qtv.obj
 0002:00005ee0       ??_C@_0DC@HGIFGJEI@QTVSV?51?6PERROR?3?5You?5need?5to?5pro@ 0046aee0     sv_demo_qtv.obj
 0002:00005f14       ??_C@_09OAJPIMOA@Countdown@ 0046af14     sv_demo_qtv.obj
 0002:00005f20       ??_C@_08LILMGHBE@say_game@ 0046af20     sv_demo_qtv.obj
 0002:00005f2c       ??_C@_09IPOGEMLI@say_game?5@ 0046af2c     sv_demo_qtv.obj
 0002:00005f38       ??_C@_08NBFNGOHN@say_team@ 0046af38     sv_demo_qtv.obj
 0002:00005f44       ??_C@_0BL@NONFPBJF@?$CD0?3qtv_?$CFs_game?3?$CD?$CFd?3?$CFs?3?5?$CFs?6@ 0046af44     sv_demo_qtv.obj
 0002:00005f60       ??_C@_0CA@KNHHEMDC@qtv?3?5?$CD0?3qtv_?$CFs_game?3?$CD?$CFd?3?$CFs?3?5?$CFs?6@ 0046af60     sv_demo_qtv.obj
 0002:00005f80       ??_C@_0DG@CINGAJEI@QTVsv_NewUser?3?5too?5much?5users?0?5@ 0046af80     sv_demo_qtv.obj
 0002:00005fb8       ??_C@_05EFCOGFFF@?5join@   0046afb8     sv_demo_qtv.obj
 0002:00005fc0       ??_C@_05BGGCPIJP@QTV?3?5@  0046afc0     sv_demo_qtv.obj
 0002:00005fc8       ??_C@_0M@KDFIPDC@?$CFs?$CFs?3?5?$CFs?$CFs?6@ 0046afc8     sv_demo_qtv.obj
 0002:00005fd4       ??_C@_05BOKCMNHH@?5left@   0046afd4     sv_demo_qtv.obj
 0002:00005fdc       ??_C@_0CD@NCKMFLCP@qtv?3?5change?5event?5without?5oldus@ 0046afdc     sv_demo_qtv.obj
 0002:00006000       ??_C@_0BC@LGAGAKLJ@?5changed?5name?5to?5@ 0046b000     sv_demo_qtv.obj
 0002:00006014       ??_C@_0O@MEHOEBBO@?$CFs?$CFs?3?5?$CFs?$CFs?$CFs?6@ 0046b014     sv_demo_qtv.obj
 0002:00006024       ??_C@_0CG@DKABNPP@Parse_QtvUserList?3?5unknown?5acti@ 0046b024     sv_demo_qtv.obj
 0002:0000604c       ??_C@_0BI@CLCGLILJ@Proxy?5name?3?5?$CFs?0?5id?3?5?$CFd?6@ 0046b04c     sv_demo_qtv.obj
 0002:00006064       ??_C@_0N@FHHEBEFL@userid?5name?6@ 0046b064     sv_demo_qtv.obj
 0002:00006074       ??_C@_0N@LBNNJODI@?9?9?9?9?9?9?5?9?9?9?9?6@ 0046b074     sv_demo_qtv.obj
 0002:00006084       ??_C@_07DFHGMMNF@?$CF6i?5?$CFs?6@ 0046b084     sv_demo_qtv.obj
 0002:0000608c       ??_C@_0BA@JLCEKNGN@?$CFi?5total?5users?6@ 0046b08c     sv_demo_qtv.obj
 0002:0000609c       ??_C@_0BD@BNGMOEEA@no?5QTVs?5connected?6@ 0046b09c     sv_demo_qtv.obj
 0002:000060b0       ??_C@_03JGEKGJAK@qul@      0046b0b0     sv_demo_qtv.obj
 0002:000060b4       ??_C@_0BF@HDHDFNLC@Bad?5QTV?5command?3?5?$CFs?6@ 0046b0b4     sv_demo_qtv.obj
 0002:000060cc       ??_C@_0DF@FDBLIHAJ@QTV_ReadInput?3?5read?5error?5from?5@ 0046b0cc     sv_demo_qtv.obj
 0002:00006104       ??_C@_0DJ@PKMIEMAO@QTV_ReadInput?3?5can?8t?5handle?5suc@ 0046b104     sv_demo_qtv.obj
 0002:00006140       ??_C@_0CE@KNOMNEIC@QTV_ReadInput?3?5can?8t?5handle?5clc@ 0046b140     sv_demo_qtv.obj
 0002:00006164       ??_C@_04LKNNGBMH@Addr@     0046b164     sv_demo_qtv.obj
 0002:0000616c       ??_C@_03BCOGDINP@?$CDId@   0046b16c     sv_demo_qtv.obj
 0002:00006170       ??_C@_0BE@EMHLPOF@QTV?5list?3?6?$CF4?44s?5?$CFs?6@ 0046b170     sv_demo_qtv.obj
 0002:00006184       ??_C@_07BOHHMOCC@?$CF4d?5?$CFs?6@ 0046b184     sv_demo_qtv.obj
 0002:0000618c       ??_C@_0BB@KMNDOKNC@QTV?5list?3?5empty?6@ 0046b18c     sv_demo_qtv.obj
 0002:000061a0       ??_C@_0BI@EDCNEJKB@qtv?5?$CFd?5?$CC?$CFs?$CC?5?$CC?$CFd?$EA?$CFs?$CC?5?$CFd?6@ 0046b1a0     sv_demo_qtv.obj
 0002:000061b8       ??_C@_0BD@LLHNHKII@qtv?5?$CFd?5?$CC?$CFs?$CC?5?$CC?$CC?5?$CFd?6@ 0046b1b8     sv_demo_qtv.obj
 0002:000061cc       ??_C@_0M@KILBOAEN@qtvusers?5?$CFd@ 0046b1cc     sv_demo_qtv.obj
 0002:000061d8       ??_C@_05JEHJOICL@?5?$CC?$CFs?$CC@ 0046b1d8     sv_demo_qtv.obj
 0002:000061e0       ??_C@_0BH@NCAJMOJC@Usage?3?5?$CFs?5?$DM?$CDid?5?$HM?5all?$DO?6@ 0046b1e0     sv_demo_qtv.obj
 0002:000061f8       ??_C@_0BH@JOMONIPK@QTV?5list?5alredy?5empty?6@ 0046b1f8     sv_demo_qtv.obj
 0002:00006210       ??_C@_03NFKEKGGK@all@      0046b210     sv_demo_qtv.obj
 0002:00006214       ??_C@_0CH@EGFHJMMM@QTV?5id?3?$CFd?5aka?5?$CFs?5will?5be?5droppe@ 0046b214     sv_demo_qtv.obj
 0002:0000623c       ??_C@_0BF@GIFJGDOI@QTV?5id?3?$CFd?5not?5found?6@ 0046b23c     sv_demo_qtv.obj
 0002:00006254       ??_C@_0M@NINDGDGP@QTV?5status?6@ 0046b254     sv_demo_qtv.obj
 0002:00006260       ??_C@_07MALOAKCI@invalid@  0046b260     sv_demo_qtv.obj
 0002:00006268       ??_C@_06OODDLKLE@listen@   0046b268     sv_demo_qtv.obj
 0002:00006270       ??_C@_0BF@MFNGKHFG@Listen?5socket?5?5?3?5?$CFs?6@ 0046b270     sv_demo_qtv.obj
 0002:00006288       ??_C@_0BF@HAKLBEML@Port?5?5?5?5?5?5?5?5?5?5?5?3?5?$CFd?6@ 0046b288     sv_demo_qtv.obj
 0002:000062a0       ??_C@_0BF@HKMANIND@Streams?5?5?5?5?5?5?5?5?3?5?$CFd?6@ 0046b2a0     sv_demo_qtv.obj
 0002:000062b8       ??_C@_0BF@CDFAPHAA@Pending?5streams?3?5?$CFd?6@ 0046b2b8     sv_demo_qtv.obj
 0002:000062d0       ??_C@_08KDFMLEKA@qtv_list@ 0046b2d0     sv_demo_qtv.obj
 0002:000062dc       ??_C@_09OIMJKDLJ@qtv_close@ 0046b2dc     sv_demo_qtv.obj
 0002:000062e8       ??_C@_0L@NNNBCO@qtv_status@ 0046b2e8     sv_demo_qtv.obj
 0002:000062f4       ??_C@_0M@IGMOHIBK@sv_nailhack@ 0046b2f4     sv_ents.obj
 0002:00006300       ??_C@_0BE@FPMMCCPL@Unset?5entity?5number@ 0046b300     sv_ents.obj
 0002:00006314       ??_C@_0BG@NOHLHMPC@Entity?5number?5?$DO?$DN?52048@ 0046b314     sv_ents.obj
 0002:0000632c       ??_C@_0DJ@MGIFBFPJ@Entity?5number?5?$DO?$DN?5MAX_EDICTS?5?$CI?$CFd@ 0046b32c     sv_ents.obj
 0002:00006368       ??_C@_08MAMBFAJC@U_REMOVE@ 0046b368     sv_ents.obj
 0002:00006374       ??_C@_0BL@PKCMNAHB@LOL?0?5?$CFd?0?5?$CFd?0?5?$CFd?0?5?$CFd?5?$CFd?5?$CFd?6@ 0046b374     sv_ents.obj
 0002:00006390       ??_C@_05PMKCKAGE@demo?6@   0046b390     sv_ents.obj
 0002:00006398       ??_C@_09FBHMEEIL@?$FLServeMe?$FN@ 0046b398     sv_ents.obj
 0002:000063a4       ??_C@_0CG@LPPAMEEM@SV_ModelIndex?3?5model?5?$CFs?5not?5pre@ 0046b3a4     sv_init.obj
 0002:000063cc       ??_C@_0CO@EOIMGEMJ@sv?4num_signon_buffers?5?$DN?$DN?5MAX_SI@ 0046b3cc     sv_init.obj
 0002:000063fc       ??_C@_0BB@PLOODOCK@progs?1player?4mdl@ 0046b3fc     sv_init.obj
 0002:00006410       ??_C@_0BE@DMELGBLC@progs?1newplayer?4mdl@ 0046b410     sv_init.obj
 0002:00006424       ??_C@_0P@EJFGBMIO@progs?1eyes?4mdl@ 0046b424     sv_init.obj
 0002:00006434       ??_C@_0CC@CACGNKLK@SV_CheckModel?3?5could?5not?5load?5?$CF@ 0046b434     sv_init.obj
 0002:00006458       ??_C@_0BB@NHICBDNH@SpawnServer?3?5?$CFs?6@ 0046b458     sv_init.obj
 0002:0000646c       ??_C@_07PGJFMIGF@spprogs@  0046b46c     sv_init.obj
 0002:00006474       ??_C@_06MPFHDDPL@items2@   0046b474     sv_init.obj
 0002:0000647c       ??_C@_08ONAKKFI@movement@  0046b47c     sv_init.obj
 0002:00006488       ??_C@_08PNAAFNAG@vw_index@ 0046b488     sv_init.obj
 0002:00006494       ??_C@_0L@MGBAJJHO@hideentity@ 0046b494     sv_init.obj
 0002:000064a0       ??_C@_08BCGNMOHF@trackent@ 0046b4a0     sv_init.obj
 0002:000064ac       ??_C@_0L@IGHLELOG@visclients@ 0046b4ac     sv_init.obj
 0002:000064b8       ??_C@_0M@MHKGJDEA@hideplayers@ 0046b4b8     sv_init.obj
 0002:000064c4       ??_C@_0L@PCBJDCJB@teleported@ 0046b4c4     sv_init.obj
 0002:000064d0       ??_C@_0M@IIEJKNEC@client_time@ 0046b4d0     sv_init.obj
 0002:000064dc       ??_C@_0BA@FHAPJCLI@attack_finished@ 0046b4dc     sv_init.obj
 0002:000064ec       ??_C@_03ILHJKOOP@KTX@      0046b4ec     sv_init.obj
 0002:000064f0       ??_C@_08LCBPKNJC@qwm_name@ 0046b4f0     sv_init.obj
 0002:000064fc       ??_C@_0BB@MLCMHINI@SpectatorConnect@ 0046b4fc     sv_init.obj
 0002:00006510       ??_C@_0P@CCJCDPC@SpectatorThink@ 0046b510     sv_init.obj
 0002:00006520       ??_C@_0BE@ILIPCDGE@SpectatorDisconnect@ 0046b520     sv_init.obj
 0002:00006534       ??_C@_0M@DEPAFFFF@ChatMessage@ 0046b534     sv_init.obj
 0002:00006540       ??_C@_0BB@NJDPIGNF@UserInfo_Changed@ 0046b540     sv_init.obj
 0002:00006554       ??_C@_0L@NGGFKIFG@ConsoleCmd@ 0046b554     sv_init.obj
 0002:00006560       ??_C@_07EJIPDLMH@UserCmd@  0046b560     sv_init.obj
 0002:00006568       ??_C@_0BB@EKHJJCKI@localinfoChanged@ 0046b568     sv_init.obj
 0002:0000657c       ??_C@_0BB@FFBMOOFN@GE_ClientCommand@ 0046b57c     sv_init.obj
 0002:00006590       ??_C@_0N@MBPNJODL@GE_PausedTic@ 0046b590     sv_init.obj
 0002:000065a0       ??_C@_0P@OLKBEHAM@GE_ShouldPause@ 0046b5a0     sv_init.obj
 0002:000065b0       ??_C@_0CG@IEHPCLIE@Cant?5load?5map?5?$CFs?0?5falling?5back?5@ 0046b5b0     sv_init.obj
 0002:000065d8       ??_C@_0BE@GLNBGCHL@CM_LoadMap?3?5bad?5map@ 0046b5d8     sv_init.obj
 0002:000065ec       ??_C@_05NMMFNINE@MVDSV@    0046b5ec     sv_init.obj
 0002:000065f4       ??_C@_07MHPPDIMD@gamecfg@  0046b5f4     sv_init.obj
 0002:000065fc       ??_C@_08JDLLCNCM@scratch1@ 0046b5fc     sv_init.obj
 0002:00006608       ??_C@_08LIJGHOOP@scratch2@ 0046b608     sv_init.obj
 0002:00006614       ??_C@_08KBINEPKO@scratch3@ 0046b614     sv_init.obj
 0002:00006620       ??_C@_08OOMMNJGJ@scratch4@ 0046b620     sv_init.obj
 0002:0000662c       ??_C@_06IPFCEANI@saved1@   0046b62c     sv_init.obj
 0002:00006634       ??_C@_06KEHPBDBL@saved2@   0046b634     sv_init.obj
 0002:0000663c       ??_C@_06LNGECCFK@saved3@   0046b63c     sv_init.obj
 0002:00006644       ??_C@_06PCCFLEJN@saved4@   0046b644     sv_init.obj
 0002:0000664c       ??_C@_0N@DJLGBGCJ@savedgamecfg@ 0046b64c     sv_init.obj
 0002:0000665c       ??_C@_05NELMKJIK@temp1@    0046b65c     sv_init.obj
 0002:00006664       ??_C@_0P@FAKGBDJP@maps?1?$CFs?1?$CFs?4ent@ 0046b664     sv_init.obj
 0002:00006674       ??_C@_0M@NHJMLCCE@maps?1?$CFs?4ent@ 0046b674     sv_init.obj
 0002:00006680       ??_C@_0BC@INHBGOIA@Using?5entfile?5?$CFs?6@ 0046b680     sv_init.obj
 0002:00006694       ??_C@_0BB@EKMEFFAM@Server?5spawned?4?6@ 0046b694     sv_init.obj
 0002:000066a8       ??_C@_08BBKHEDIJ@sv_login@ 0046b6a8     sv_login.obj
 0002:000066b4       ??_C@_0N@DMAHAACF@sv_login_web@ 0046b6b4     sv_login.obj
 0002:000066c4       ??_C@_02BKFDOEMK@wt@       0046b6c4     sv_login.obj
 0002:000066c8       ??_C@_0M@DGIPCFKJ@?$CFs?1accounts@ 0046b6c8     sv_login.obj
 0002:000066d4       ??_C@_0CN@HBEKOEKN@Warning?3?5couldn?8t?5open?5for?5writ@ 0046b6d4     sv_login.obj
 0002:00006704       ??_C@_0N@PPECGIJD@?$CFs?5?$CFs?5?$CFd?5?$CFd?6@ 0046b704     sv_login.obj
 0002:00006714       ??_C@_09HGHGFAHB@?$CFs?5?$CFs?5?$CFd?6@ 0046b714     sv_login.obj
 0002:00006720       ??_C@_0BI@JODIPBNI@couldn?8t?5open?5accounts?6@ 0046b720     sv_login.obj
 0002:00006738       ??_C@_0BM@FGDGAOLK@Error?5reading?5account?5data?6@ 0046b738     sv_login.obj
 0002:00006754       ??_C@_06JBLMLCKL@?$CFs?5?$CFd?6@ 0046b754     sv_login.obj
 0002:0000675c       ??_C@_09GIKFGCFC@?$CFs?5?$CFd?5?$CFd?6@ 0046b75c     sv_login.obj
 0002:00006768       ??_C@_0M@PCENNPGA@?$CFd?4?$CFd?4?$CFd?4?$CFd@ 0046b768     sv_login.obj
 0002:00006778       ??_C@_0HE@GLAIIOOM@usage?3?5acc_create?5?$DMlogin?$DO?5?$FL?$DMpas@ 0046b778     sv_login.obj
 0002:000067ec       ??_C@_0BG@BDFEMCIM@MAX_ACCOUNTS?5reached?6@ 0046b7ec     sv_login.obj
 0002:00006808       ??_C@_0EL@HNMNHOGI@usage?3?5acc_create?5?$DMaddress?$DO?5?$DMus@ 0046b808     sv_login.obj
 0002:00006854       ??_C@_0BA@LBAIKCOG@Invalid?5login?$CB?6@ 0046b854     sv_login.obj
 0002:00006864       ??_C@_0P@NOJIANMC@Invalid?5pass?$CB?6@ 0046b864     sv_login.obj
 0002:00006874       ??_C@_0BG@EACOIJJJ@Login?5already?5in?5use?6@ 0046b874     sv_login.obj
 0002:0000688c       ??_C@_0BC@FOFEJGKC@login?5?$CFs?5created?6@ 0046b88c     sv_login.obj
 0002:000068a0       ??_C@_0BL@GCMJGNMD@usage?3?5acc_remove?5?$DMlogin?$DO?6@ 0046b8a0     sv_login.obj
 0002:000068bc       ??_C@_0BC@OALEIENF@login?5?$CFs?5removed?6@ 0046b8bc     sv_login.obj
 0002:000068d0       ??_C@_0BK@GGGEEJBI@account?5for?5?$CFs?5not?5found?6@ 0046b8d0     sv_login.obj
 0002:000068ec       ??_C@_0BH@NGIHCOPC@account?5list?5is?5empty?6@ 0046b8ec     sv_login.obj
 0002:00006904       ??_C@_0P@DEBJOKOO@account?5list?3?6@ 0046b904     sv_login.obj
 0002:00006914       ??_C@_07MAJPMGLJ@blocked@  0046b914     sv_login.obj
 0002:0000691c       ??_C@_09KCFPEED@?$CF?416s?5?$CFs?6@ 0046b91c     sv_login.obj
 0002:00006928       ??_C@_0BD@GOMCNEOE@?$CFd?5login?$CIs?$CJ?5found?6@ 0046b928     sv_login.obj
 0002:0000693c       ??_C@_0BE@HJBNIKJI@account?5?$CFs?5blocked?6@ 0046b93c     sv_login.obj
 0002:00006950       ??_C@_0BI@JOKGALLN@account?5?$CFs?5not?5blocked?6@ 0046b950     sv_login.obj
 0002:00006968       ??_C@_0BG@GJJANLED@account?5?$CFs?5unblocked?6@ 0046b968     sv_login.obj
 0002:00006980       ??_C@_0BG@EAOGDEOB@account?5?$CFs?5not?5found?6@ 0046b980     sv_login.obj
 0002:00006998       ??_C@_0BM@BBGDACDO@usage?3?5acc_unblock?5?$DMlogin?$DO?6@ 0046b998     sv_login.obj
 0002:000069b4       ??_C@_0BK@FBCOKJGD@usage?3?5acc_block?5?$DMlogin?$DO?6@ 0046b9b4     sv_login.obj
 0002:000069d0       ??_C@_0DD@MFACFIGJ@account?5?$CFs?5blocked?5after?5?$CFd?5fai@ 0046b9d0     sv_login.obj
 0002:00006a04       ??_C@_0L@LDJECJBE@acc_create@ 0046ba04     sv_login.obj
 0002:00006a10       ??_C@_0L@LPMFGENB@acc_remove@ 0046ba10     sv_login.obj
 0002:00006a1c       ??_C@_08EMAEHNIK@acc_list@ 0046ba1c     sv_login.obj
 0002:00006a28       ??_C@_0M@OAMKGEAL@acc_unblock@ 0046ba28     sv_login.obj
 0002:00006a34       ??_C@_09HKGEGPPN@acc_block@ 0046ba34     sv_login.obj
 0002:00006a40       ??_C@_0O@IIKONKCF@?1?1authprompt?6@ 0046ba40     sv_login.obj
 0002:00006a50       ??_C@_0BB@MBOPFMA@Enter?5username?3?6@ 0046ba50     sv_login.obj
 0002:00006a64       ??_C@_0BJ@MLFMPNHP@Enter?5login?5?$CG?5password?3?6@ 0046ba64     sv_login.obj
 0002:00006a80       ??_C@_0CE@DGCLIDGH@Challenge?5received?0?5please?5wait@ 0046ba80     sv_login.obj
 0002:00006aa4       ??_C@_0BL@FDFCBPEL@Please?5wait?5and?5try?5again?6@ 0046baa4     sv_login.obj
 0002:00006ac0       ??_C@_0CG@KGKMEEDL@Generating?5challenge?0?5please?5wa@ 0046bac0     sv_login.obj
 0002:00006ae8       ??_C@_0BI@OGGNDFBM@Enter?5password?5for?5?$CFs?3?6@ 0046bae8     sv_login.obj
 0002:00006b00       ??_C@_0BK@GFNJCGLG@Login?5in?5use?$CB?6try?5again?3?6@ 0046bb00     sv_login.obj
 0002:00006b1c       ??_C@_0CA@ODHMNLHJ@Access?5denied?6Password?5for?5?$CFs?3?6@ 0046bb1c     sv_login.obj
 0002:00006b3c       ??_C@_0P@KHILLGBK@Login?5blocked?6@ 0046bb3c     sv_login.obj
 0002:00006b4c       ??_C@_0BE@ICMIBBLJ@?$CFs?5logged?5in?5as?5?$CFs?6@ 0046bb4c     sv_login.obj
 0002:00006b60       ??_C@_0M@CJJKGKG@Welcome?5?$CFs?6@ 0046bb60     sv_login.obj
 0002:00006b6c       ??_C@_08MOAINGNI@cmd?5new?6@ 0046bb6c     sv_login.obj
 0002:00006b78       ??_C@_0CD@HILEAEPN@?5?$CIusing?5authenticated?5user?8s?5na@ 0046bb78     sv_login.obj
 0002:00006b9c       ??_C@_08NJDLOMAF@name?5?$CFs?6@ 0046bb9c     sv_login.obj
 0002:00006ba8       ??_C@_0BH@OAEJGEDL@Login?5time?5out?5for?5?$CFs?6@ 0046bba8     sv_login.obj
 0002:00006bc0       ??_C@_0BH@CIPHNGIH@Login?5timeout?5expired?6@ 0046bbc0     sv_login.obj
 0002:00006bd8       ??_C@_0BM@DFDOIIIO@Challenge?5response?5failed?4?6@ 0046bbd8     sv_login.obj
 0002:00006bf8       ??_C@_0FK@DBKIHBDO@This?5server?5requires?5users?5to?5l@ 0046bbf8     sv_login.obj
 0002:00006c58       ??_C@_0FE@CJAPBNFH@This?5server?5requires?5users?5to?5l@ 0046bc58     sv_login.obj
 0002:00006cac       ??_C@_09KHLHLM@sv_mintic@  0046bcac     sv_main.obj
 0002:00006cb8       ??_C@_05BFFPNKKC@0?4013@   0046bcb8     sv_main.obj
 0002:00006cc0       ??_C@_09DFEFHPD@sv_maxtic@ 0046bcc0     sv_main.obj
 0002:00006ccc       ??_C@_03NKBOLEBK@0?41@     0046bccc     sv_main.obj
 0002:00006cd0       ??_C@_06MMFGJAOP@maxfps@   0046bcd0     sv_main.obj
 0002:00006cd8       ??_C@_02LBJNHFMM@77@       0046bcd8     sv_main.obj
 0002:00006cdc       ??_C@_0BD@LHKBFGKK@sys_select_timeout@ 0046bcdc     sv_main.obj
 0002:00006cf0       ??_C@_05CLDMBJBA@10000@    0046bcf0     sv_main.obj
 0002:00006cf8       ??_C@_0BF@LOKEAOCB@sys_restart_on_error@ 0046bcf8     sv_main.obj
 0002:00006d10       ??_C@_0P@EMHMPJGM@sys_simulation@ 0046bd10     sv_main.obj
 0002:00006d20       ??_C@_09DNECJBKD@developer@ 0046bd20     sv_main.obj
 0002:00006d2c       ??_C@_07CPCPJPKL@version@  0046bd2c     sv_main.obj
 0002:00006d34       ??_C@_07DDHNKDGP@timeout@  0046bd34     sv_main.obj
 0002:00006d3c       ??_C@_02ICGJHNHJ@65@       0046bd3c     sv_main.obj
 0002:00006d40       ??_C@_0L@MDBFHEGE@zombietime@ 0046bd40     sv_main.obj
 0002:00006d4c       ??_C@_0O@EEIAMLPM@rcon_password@ 0046bd4c     sv_main.obj
 0002:00006d5c       ??_C@_08NLHBPEGP@password@ 0046bd5c     sv_main.obj
 0002:00006d68       ??_C@_0BB@EHELGANL@sv_hashpasswords@ 0046bd68     sv_main.obj
 0002:00006d7c       ??_C@_0O@NAOFFIGM@sv_crypt_rcon@ 0046bd7c     sv_main.obj
 0002:00006d8c       ??_C@_0BA@JGDEEKMN@sv_timestamplen@ 0046bd8c     sv_main.obj
 0002:00006d9c       ??_C@_0L@MICKBIFB@sv_rconlim@ 0046bd9c     sv_main.obj
 0002:00006da8       ??_C@_0O@FELPKDDE@frag_log_type@ 0046bda8     sv_main.obj
 0002:00006db8       ??_C@_0BB@HPEMFGGN@sys_command_line@ 0046bdb8     sv_main.obj
 0002:00006dcc       ??_C@_0L@IMFBDOGD@sv_use_dns@ 0046bdcc     sv_main.obj
 0002:00006dd8       ??_C@_0BD@DBGKBKIC@spectator_password@ 0046bdd8     sv_main.obj
 0002:00006dec       ??_C@_0N@CLNLNMLF@vip_password@ 0046bdec     sv_main.obj
 0002:00006dfc       ??_C@_0L@NFIFALFE@vip_values@ 0046bdfc     sv_main.obj
 0002:00006e08       ??_C@_0P@EADOOGOD@allow_download@ 0046be08     sv_main.obj
 0002:00006e18       ??_C@_0BF@OBJGINPK@allow_download_skins@ 0046be18     sv_main.obj
 0002:00006e30       ??_C@_0BG@MNAAKFMC@allow_download_models@ 0046be30     sv_main.obj
 0002:00006e48       ??_C@_0BG@HOHDCKNK@allow_download_sounds@ 0046be48     sv_main.obj
 0002:00006e60       ??_C@_0BE@NOPPPKJ@allow_download_maps@ 0046be60     sv_main.obj
 0002:00006e74       ??_C@_0BH@PHDOEJDL@allow_download_pakmaps@ 0046be74     sv_main.obj
 0002:00006e8c       ??_C@_0BF@MONFPMNI@allow_download_demos@ 0046be8c     sv_main.obj
 0002:00006ea4       ??_C@_0BF@NKMAPGIM@allow_download_other@ 0046bea4     sv_main.obj
 0002:00006ebc       ??_C@_0BB@GEONAHHD@download_map_url@ 0046bebc     sv_main.obj
 0002:00006ed0       ??_C@_0N@NPAIPNBH@sv_specprint@ 0046bed0     sv_main.obj
 0002:00006ee0       ??_C@_0BC@MCFEMHMF@sv_reconnectlimit@ 0046bee0     sv_main.obj
 0002:00006ef4       ??_C@_0N@GOPEJMKH@sv_admininfo@ 0046bef4     sv_main.obj
 0002:00006f04       ??_C@_09ELPKMKCJ@sv_unfake@ 0046bf04     sv_main.obj
 0002:00006f10       ??_C@_0L@NOMAENMK@sv_kicktop@ 0046bf10     sv_main.obj
 0002:00006f1c       ??_C@_0BD@LMBAGIGH@sv_allowlastscores@ 0046bf1c     sv_main.obj
 0002:00006f30       ??_C@_0O@FEFBEFNG@sv_maxlogsize@ 0046bf30     sv_main.obj
 0002:00006f40       ??_C@_09HOFJEJOL@sv_logdir@ 0046bf40     sv_main.obj
 0002:00006f4c       ??_C@_0O@GLHJEEHG@sv_speedcheck@ 0046bf4c     sv_main.obj
 0002:00006f5c       ??_C@_06PBMCEMMA@sv_phs@   0046bf5c     sv_main.obj
 0002:00006f64       ??_C@_08KKMIMEJB@pausable@ 0046bf64     sv_main.obj
 0002:00006f70       ??_C@_0L@GPKAAAKJ@sv_maxrate@ 0046bf70     sv_main.obj
 0002:00006f7c       ??_C@_0N@EEAECALN@sv_getrealip@ 0046bf7c     sv_main.obj
 0002:00006f8c       ??_C@_0M@IGACEIID@sv_serverip@ 0046bf8c     sv_main.obj
 0002:00006f98       ??_C@_0BE@MHAEPGMO@sv_forcespec_onfull@ 0046bf98     sv_main.obj
 0002:00006fac       ??_C@_0BD@GNGPIMCH@sv_maxdownloadrate@ 0046bfac     sv_main.obj
 0002:00006fc0       ??_C@_0BA@INMJKPDO@sv_loadentfiles@ 0046bfc0     sv_main.obj
 0002:00006fd0       ??_C@_0BE@BPOJNFMA@sv_loadentfiles_dir@ 0046bfd0     sv_main.obj
 0002:00006fe4       ??_C@_0BA@GNLOLJDO@sv_default_name@ 0046bfe4     sv_main.obj
 0002:00006ff4       ??_C@_07LFIJDALL@unnamed@  0046bff4     sv_main.obj
 0002:00006ffc       ??_C@_0BA@DOPJBMFJ@sv_mod_msg_file@ 0046bffc     sv_main.obj
 0002:0000700c       ??_C@_0BC@IDELEPKI@sv_reliable_sound@ 0046c00c     sv_main.obj
 0002:00007020       ??_C@_09GCIEGDDN@fraglimit@ 0046c020     sv_main.obj
 0002:0000702c       ??_C@_08IKNDEHFO@teamplay@ 0046c02c     sv_main.obj
 0002:00007038       ??_C@_0L@JKCONGEA@maxclients@ 0046c038     sv_main.obj
 0002:00007044       ??_C@_02JMHLOEOE@24@       0046c044     sv_main.obj
 0002:00007048       ??_C@_0O@NKKGEANE@maxspectators@ 0046c048     sv_main.obj
 0002:00007058       ??_C@_01KJLJFBPL@8@        0046c058     sv_main.obj
 0002:0000705c       ??_C@_0BC@BIGCINJD@maxvip_spectators@ 0046c05c     sv_main.obj
 0002:00007070       ??_C@_08FPDJBJMM@watervis@ 0046c070     sv_main.obj
 0002:0000707c       ??_C@_0L@CNFIPALO@serverdemo@ 0046c07c     sv_main.obj
 0002:00007088       ??_C@_05ODMCMJAJ@skill@    0046c088     sv_main.obj
 0002:00007090       ??_C@_04OILOBHMB@coop@     0046c090     sv_main.obj
 0002:00007098       ??_C@_09CGEBDJFG@sv_paused@ 0046c098     sv_main.obj
 0002:000070a4       ??_C@_08EHKIGBEA@hostname@ 0046c0a4     sv_main.obj
 0002:000070b0       ??_C@_0N@CIABHGEP@sv_forcenick@ 0046c0b0     sv_main.obj
 0002:000070c0       ??_C@_0BE@GLDAGECE@sv_registrationinfo@ 0046c0c0     sv_main.obj
 0002:000070d4       ??_C@_0L@GAAEIPML@registered@ 0046c0d4     sv_main.obj
 0002:000070e0       ??_C@_0M@CBDOEOIB@halflifebsp@ 0046c0e0     sv_main.obj
 0002:000070ec       ??_C@_0O@LMCDBLAI@sv_bspversion@ 0046c0ec     sv_main.obj
 0002:000070fc       ??_C@_0P@COLFDOHJ@sv_serveme_fix@ 0046c0fc     sv_main.obj
 0002:0000710c       ??_C@_0N@PKBMMEGE@sv_bigcoords@ 0046c10c     sv_main.obj
 0002:0000711c       ??_C@_0N@JAKAAMJN@sv_extlimits@ 0046c11c     sv_main.obj
 0002:0000712c       ??_C@_07LNBDIIPN@Standby@  0046c12c     sv_main.obj
 0002:00007134       ??_C@_0CD@NBMJHBEJ@SV_Error?3?5recursively?5entered?5?$CI@ 0046c134     sv_main.obj
 0002:00007158       ??_C@_0O@DEPAFHKB@SV_Error?3?5?$CFs?6@ 0046c158     sv_main.obj
 0002:00007168       ??_C@_0N@HOFLLEHH@SV_Error?3?5?$CFs@ 0046c168     sv_main.obj
 0002:00007178       ??_C@_0L@KKPFIJOL@disconnect@ 0046c178     sv_main.obj
 0002:00007184       ??_C@_0BG@EIFKIBLB@Spectator?5?$CFs?5removed?6@ 0046c184     sv_main.obj
 0002:0000719c       ??_C@_0BD@LMOJJDPA@Client?5?$CFs?5removed?6@ 0046c19c     sv_main.obj
 0002:000071b0       ??_C@_01CPLAODJH@S@        0046c1b0     sv_main.obj
 0002:000071b4       ??_C@_05PBCDHGMN@?99999@   0046c1b4     sv_main.obj
 0002:000071bc       ??_C@_05DAEMBCOL@?2s?2?$CFs@ 0046c1bc     sv_main.obj
 0002:000071c4       ??_C@_04NHPAFEHJ@skin@     0046c1c4     sv_main.obj
 0002:000071cc       ??_C@_0BM@BMIDGMMF@?$CFi?5?$CFs?5?$CFi?5?$CFi?5?$CC?$CFs?$CC?5?$CC?$CFs?$CC?5?$CFi?5?$CFi@ 0046c1cc     sv_main.obj
 0002:000071e8       ??_C@_07CAECCLBI@?5?$CCnone?$CC@ 0046c1e8     sv_main.obj
 0002:000071f0       ??_C@_03OCPCFLHD@?5?$CC?$CC@ 0046c1f0     sv_main.obj
 0002:000071f4       ??_C@_0BP@BPMIAOKB@beginning?5fraglog?5sequence?5?$CFi?6@ 0046c1f4     sv_main.obj
 0002:00007214       ??_C@_0BG@FACBGOMF@sending?5log?5?$CFi?5to?5?$CFs?6@ 0046c214     sv_main.obj
 0002:0000722c       ??_C@_0L@JBKFBJM@stdlog?5?$CFi?6@ 0046c22c     sv_main.obj
 0002:00007238       ??_C@_04JDNGKEJO@?$CFc?$CFi@ 0046c238     sv_main.obj
 0002:00007240       ??_C@_0BD@MEMHECOL@?$CFc?6Bad?5challenge?4?6@ 0046c240     sv_main.obj
 0002:00007254       ??_C@_0BO@GPLPGPGL@?$CFc?6No?5challenge?5for?5address?4?6@ 0046c254     sv_main.obj
 0002:00007274       ??_C@_0BM@GILMAFBL@?$CFc?6Server?5is?5version?52?440?4?6@ 0046c274     sv_main.obj
 0002:00007290       ??_C@_0CE@NCMHAIHB@?$CK?5rejected?5connect?5from?5version@ 0046c290     sv_main.obj
 0002:000072b4       ??_C@_0DO@CJEGNDPL@?$CFc?6Invalid?5userinfo?0?5perhaps?5?$CGc@ 0046c2b4     sv_main.obj
 0002:000072f4       ??_C@_09FNMDCDOI@spectator@ 0046c2f4     sv_main.obj
 0002:00007300       ??_C@_04CGFJFPFD@none@     0046c300     sv_main.obj
 0002:00007308       ??_C@_0BO@DNDNDHCH@?$CFs?3spectator?5password?5failed?6@ 0046c308     sv_main.obj
 0002:00007328       ??_C@_0CD@EEBLJHAD@?$CFc?6requires?5a?5spectator?5passwor@ 0046c328     sv_main.obj
 0002:0000734c       ??_C@_0L@LBPNCNCB@?$CKspectator@ 0046c34c     sv_main.obj
 0002:00007358       ??_C@_0BE@JJFBPELK@?$CFs?3password?5failed?6@ 0046c358     sv_main.obj
 0002:0000736c       ??_C@_0CA@LDGBOHOF@?$CFc?6server?5requires?5a?5password?6?6@ 0046c36c     sv_main.obj
 0002:0000738c       ??_C@_0CB@NBGOHNLE@?$CFs?3reconnect?5rejected?3?5too?5soon@ 0046c38c     sv_main.obj
 0002:000073b0       ??_C@_0O@FLCHKEJG@?$CFs?3reconnect?6@ 0046c3b0     sv_main.obj
 0002:000073c0       ??_C@_0CF@HDNEADHI@Client?5supports?50x?$CFx?5fte?5extens@ 0046c3c0     sv_main.obj
 0002:000073e8       ??_C@_0CG@IODKHBKP@Client?5supports?50x?$CFx?5fte?5extens@ 0046c3e8     sv_main.obj
 0002:00007410       ??_C@_0CH@DIOJDJIC@Client?5supports?50x?$CFx?5mvdsv?5exte@ 0046c410     sv_main.obj
 0002:00007438       ??_C@_0BB@OBAPIIE@?$CFs?3full?5connect?6@ 0046c438     sv_main.obj
 0002:0000744c       ??_C@_0BE@PKBKHKNP@?$CFc?6server?5is?5full?6?6@ 0046c44c     sv_main.obj
 0002:00007460       ??_C@_03MEOKPHFC@svf@      0046c460     sv_main.obj
 0002:00007464       ??_C@_0CM@OCJDPMGK@?$CFc?6server?5is?5full?3?5connecting?5a@ 0046c464     sv_main.obj
 0002:00007490       ??_C@_05LLCFPPNB@Qizmo@    0046c490     sv_main.obj
 0002:00007498       ??_C@_04ELLCOGEC@?$CKqtv@  0046c498     sv_main.obj
 0002:000074a0       ??_C@_02HAOIJKIC@?$CFc@    0046c4a0     sv_main.obj
 0002:000074a4       ??_C@_03BGEHECAC@mtu@      0046c4a4     sv_main.obj
 0002:000074a8       ??_C@_06EONLCMF@?$CKz_ext@ 0046c4a8     sv_main.obj
 0002:000074b0       ??_C@_0FA@CIJAPGIE@WARNING?3?5Limiting?5rcon?5response@ 0046c4b0     sv_main.obj
 0002:00007500       ??_C@_03MCADLMAF@off@      0046c500     sv_main.obj
 0002:00007504       ??_C@_0BE@EADINJIK@Rcon?5Watch?5stopped?6@ 0046c504     sv_main.obj
 0002:00007518       ??_C@_0CI@FMNDJJPA@Rcon?5Watch?5is?5already?5being?5mad@ 0046c518     sv_main.obj
 0002:00007540       ??_C@_0CC@HKODCBFH@You?5are?5not?5connected?5to?5server@ 0046c540     sv_main.obj
 0002:00007564       ??_C@_0BL@HLOJPHNJ@Rcon?5Watch?5started?5for?5?$CFs?6@ 0046c564     sv_main.obj
 0002:00007580       ??_C@_05OCEJBCEE@chmod@    0046c580     sv_main.obj
 0002:00007588       ??_C@_03MGHMBJCF@log@      0046c588     sv_main.obj
 0002:0000758c       ??_C@_0BH@HFMHAOGJ@Rcon?5from?5?$CFs?5?$CI?$CFs?$CJ?3?5?$CFs?6@ 0046c58c     sv_main.obj
 0002:000075a4       ??_C@_0BC@MMMCANIB@Rcon?5from?5?$CFs?3?5?$CFs?6@ 0046c5a4     sv_main.obj
 0002:000075b8       ??_C@_0BC@EHLDDKCE@Rcon?5from?5?$CFs?3?6?$CFs?6@ 0046c5b8     sv_main.obj
 0002:000075cc       ??_C@_0BG@BDGKHLM@Bad?5rcon?5from?5?$CFs?3?5?$CFs?6@ 0046c5cc     sv_main.obj
 0002:000075e4       ??_C@_0BL@EJEIMOJF@Bad?5rcon?5from?5?$CFs?5?$CI?$CFs?$CJ?3?6?$CFs?6@ 0046c5e4     sv_main.obj
 0002:00007600       ??_C@_0BG@IKEHJABJ@Bad?5rcon?5from?5?$CFs?3?6?$CFs?6@ 0046c600     sv_main.obj
 0002:00007618       ??_C@_0BN@LIHIFPGH@Rcon?5from?5banned?5IP?3?5?$CFs?3?5?$CFs?6@ 0046c618     sv_main.obj
 0002:00007638       ??_C@_0BE@IGLGOAHK@Command?5not?5valid?4?6@ 0046c638     sv_main.obj
 0002:0000764c       ??_C@_0BE@BOHFEDOD@Bad?5rcon_password?4?6@ 0046c64c     sv_main.obj
 0002:00007660       ??_C@_0BB@PHOIKPBO@A2A_ACK?5from?5?$CFs?6@ 0046c660     sv_main.obj
 0002:00007674       ??_C@_07KAIBNCHO@connect@  0046c674     sv_main.obj
 0002:0000767c       ??_C@_0N@FADCLAAC@getchallenge@ 0046c67c     sv_main.obj
 0002:0000768c       ??_C@_0L@NCBNFJOP@lastscores@ 0046c68c     sv_main.obj
 0002:00007698       ??_C@_05NKFAFLCO@dlist@    0046c698     sv_main.obj
 0002:000076a0       ??_C@_06MBAFEGOA@dlistr@   0046c6a0     sv_main.obj
 0002:000076a8       ??_C@_0L@GNKFHLJL@dlistregex@ 0046c6a8     sv_main.obj
 0002:000076b4       ??_C@_08JELJENLC@demolist@ 0046c6b4     sv_main.obj
 0002:000076c0       ??_C@_09DIPCHAJJ@demolistr@ 0046c6c0     sv_main.obj
 0002:000076cc       ??_C@_0O@MEOIDAGN@demolistregex@ 0046c6cc     sv_main.obj
 0002:000076dc       ??_C@_08ODIONBOL@qtvusers@ 0046c6dc     sv_main.obj
 0002:000076e8       ??_C@_0CH@NHBAICIE@bad?5connectionless?5packet?5from?5@ 0046c6e8     sv_main.obj
 0002:00007710       ??_C@_09FHEAGAHN@filterban@ 0046c710     sv_main.obj
 0002:0000771c       ??_C@_0BI@DIECJMKD@Bad?5filter?5address?3?5?$CFs?6@ 0046c71c     sv_main.obj
 0002:00007734       ??_C@_0BP@BONDPNOC@VIP?5spectator?5IP?5list?5is?5full?6@ 0046c734     sv_main.obj
 0002:00007754       ??_C@_0BB@DFCHPNBP@Didn?8t?5find?5?$CFs?4?6@ 0046c754     sv_main.obj
 0002:00007768       ??_C@_0L@HCJALCF@VIP?5list?3?6@ 0046c768     sv_main.obj
 0002:00007774       ??_C@_0BM@EAFNMPMN@?$CF3i?4?$CF3i?4?$CF3i?4?$CF3i?5?5?5level?5?$CFd?6@ 0046c774     sv_main.obj
 0002:00007790       ??_C@_0O@GJFANGHG@?$CFs?1vip_ip?4cfg@ 0046c790     sv_main.obj
 0002:000077a0       ??_C@_0N@FMLDMECN@Writing?5?$CFs?4?6@ 0046c7a0     sv_main.obj
 0002:000077b0       ??_C@_0BC@ONJICBGP@Couldn?8t?5open?5?$CFs?6@ 0046c7b0     sv_main.obj
 0002:000077c4       ??_C@_0BK@LKLBBFIE@vip_addip?5?$CFi?4?$CFi?4?$CFi?4?$CFi?5?$CFd?6@ 0046c7c4     sv_main.obj
 0002:000077e0       ??_C@_03PNPPPIFF@ban@      0046c7e0     sv_main.obj
 0002:000077e4       ??_C@_04FAOFCKOL@safe@     0046c7e4     sv_main.obj
 0002:000077ec       ??_C@_0CH@DMLGONFK@Wrong?5filter?5type?5?$CFs?0?5use?5ban?5o@ 0046c7ec     sv_main.obj
 0002:00007814       ??_C@_03DLDNIBIK@?$CFlf@   0046c814     sv_main.obj
 0002:00007818       ??_C@_0BI@LMFPAHLD@IP?5filter?5list?5is?5full?6@ 0046c818     sv_main.obj
 0002:00007830       ??_C@_0O@IHMGPBBL@Filter?5list?3?6@ 0046c830     sv_main.obj
 0002:00007840       ??_C@_0BD@BOMAKCMC@?$CF3i?4?$CF3i?4?$CF3i?4?$CF3i?5?$HM?5@ 0046c840     sv_main.obj
 0002:00007854       ??_C@_04NLFIPPFA@?5ban@    0046c854     sv_main.obj
 0002:0000785c       ??_C@_04GMOKIFIF@unkn@     0046c85c     sv_main.obj
 0002:00007864       ??_C@_07DMJPIJIB@?5?$HM?5?$CFi?5s@ 0046c864     sv_main.obj
 0002:0000786c       ??_C@_0O@LIJIAIPM@?$CFs?1listip?4cfg@ 0046c86c     sv_main.obj
 0002:0000787c       ??_C@_0BN@HNIIFHAP@addip?5?$CFi?4?$CFi?4?$CFi?4?$CFi?5safe?5?$CF?40f?6@ 0046c87c     sv_main.obj
 0002:0000789c       ??_C@_0BL@JMHDOLPD@addip?5?$CFi?4?$CFi?4?$CFi?4?$CFi?5?$CFs?5?$CF?40f?6@ 0046c89c     sv_main.obj
 0002:000078b8       ??_C@_09KBFOEMNM@?6banned?4?6@ 0046c8b8     sv_main.obj
 0002:000078c4       ??_C@_0BE@EIDFDMPO@?$CF3i?$HM?$CF3i?4?$CF3i?4?$CF3i?4?$CF3i@ 0046c8c4     sv_main.obj
 0002:000078d8       ??_C@_05NAFIGEFE@?$HM?5ban@ 0046c8d8     sv_main.obj
 0002:000078e0       ??_C@_05FLOFLBOP@?$HMsafe@ 0046c8e0     sv_main.obj
 0002:000078e8       ??_C@_05GHOKBOIB@?$HMunkn@ 0046c8e8     sv_main.obj
 0002:000078f0       ??_C@_0N@EFIIDNPE@?$HM?$CF4ldd?3?$CF2ldh@ 0046c8f0     sv_main.obj
 0002:00007900       ??_C@_0N@GPFANMPO@?$HM?$CF4ldh?3?$CF2ldm@ 0046c900     sv_main.obj
 0002:00007910       ??_C@_0N@PDPBONEF@?$HM?$CF4ldm?3?$CF2lds@ 0046c910     sv_main.obj
 0002:00007920       ??_C@_0L@GEKBDMKG@?$HMpermanent@ 0046c920     sv_main.obj
 0002:0000792c       ??_C@_09CDDBJFHM@Ban?5list?3@ 0046c92c     sv_main.obj
 0002:00007938       ??_C@_02EGCJHIOB@id@       0046c938     sv_main.obj
 0002:0000793c       ??_C@_07IMDLAJOE@ip?5mask@ 0046c93c     sv_main.obj
 0002:00007944       ??_C@_04GPMDFGEJ@type@     0046c944     sv_main.obj
 0002:0000794c       ??_C@_06KMGPLHPF@expire@   0046c94c     sv_main.obj
 0002:00007954       ??_C@_0BB@GAHHNNII@Ban?5list?3?5empty?6@ 0046c954     sv_main.obj
 0002:00007968       ??_C@_0EB@OBNLNIKN@?$CFs?6?$JN?$JO?$JO?$JO?$JO?$JO?$JO?$JO?$JO?$JO?$JO?$JO?$JO?$JO?$JO?$JO?$JO?$JO?$JO?$JO?$JO?$JO?$JO?$JO?$JO?$JO?$JO?$JO@ 0046c968     sv_main.obj
 0002:000079ac       ??_C@_09OAKEPFAJ@mod_admin@ 0046c9ac     sv_main.obj
 0002:000079b8       ??_C@_0BG@LJFBIJBP@You?5are?5not?5an?5admin?6@ 0046c9b8     sv_main.obj
 0002:000079d0       ??_C@_0DD@OEBCLGCE@usage?3?5cmd?5ban?5?$DMid?1nick?$DO?5?$DMtime?$DM@ 0046c9d0     sv_main.obj
 0002:00007a04       ??_C@_04LOCMGGPM@?$CFd?$CFs@ 0046ca04     sv_main.obj
 0002:00007a0c       ??_C@_0BF@PDLFACHK@ban?3?5wrong?5time?5arg?6@ 0046ca0c     sv_main.obj
 0002:00007a24       ??_C@_0BJ@PHEMNDGH@ban?3?5bad?5ip?5address?3?5?$CFs?6@ 0046ca24     sv_main.obj
 0002:00007a40       ??_C@_0BM@GDLECFOB@ban?3?5can?8t?5ban?5such?5ip?3?5?$CFs?6@ 0046ca40     sv_main.obj
 0002:00007a5c       ??_C@_0BK@OFIBJMFC@?$CFs?5was?5banned?5for?5?$CFd?$CFs?$CFs?6@ 0046ca5c     sv_main.obj
 0002:00007a78       ??_C@_01MIFGBAGJ@?$CL@     0046ca78     sv_main.obj
 0002:00007a7c       ??_C@_0BG@ELGIFOGD@addip?5?$CFs?5ban?5?$CFs?$CF?40lf?6@ 0046ca7c     sv_main.obj
 0002:00007a94       ??_C@_08FEDOFFCP@writeip?6@ 0046ca94     sv_main.obj
 0002:00007aa0       ??_C@_0CH@IHFIALPE@usage?3?5cmd?5banip?5?$DMip?$DO?5?$DMtime?$DMs?5m@ 0046caa0     sv_main.obj
 0002:00007ac8       ??_C@_0CF@BKHNNLFA@?$CF3i?4?$CF3i?4?$CF3i?4?$CF3i?5was?5banned?5for?5@ 0046cac8     sv_main.obj
 0002:00007af0       ??_C@_0BP@CEPILCFN@addip?5?$CFi?4?$CFi?4?$CFi?4?$CFi?5ban?5?$CFs?$CF?40lf?6@ 0046caf0     sv_main.obj
 0002:00007b10       ??_C@_0BL@CCKCNNAH@usage?3?5cmd?5banrem?5?$FLbanid?$FN?6@ 0046cb10     sv_main.obj
 0002:00007b2c       ??_C@_0BC@PBKIJAPB@Wrong?5ban?5id?3?5?$CFd?6@ 0046cb2c     sv_main.obj
 0002:00007b40       ??_C@_0CD@OINIPCB@Can?8t?5remove?5such?5ban?5with?5id?3?5@ 0046cb40     sv_main.obj
 0002:00007b64       ??_C@_0BO@OJAOBPCA@?$CF3i?4?$CF3i?4?$CF3i?4?$CF3i?5was?5unbanned?6@ 0046cb64     sv_main.obj
 0002:00007b84       ??_C@_0BP@NOEHAEOD@usage?3?5script?5?$DMpath?$DO?5?$FL?$DMargs?$DO?$FN?6@ 0046cb84     sv_main.obj
 0002:00007ba4       ??_C@_03LKILIBFM@?4?4?2@   0046cba4     sv_main.obj
 0002:00007ba8       ??_C@_0P@OAPMEGHB@Invalid?5path?4?6@ 0046cba8     sv_main.obj
 0002:00007bb8       ??_C@_0BA@BDBEOKNL@Running?5?$CFs?4qws?6@ 0046cbb8     sv_main.obj
 0002:00007bc8       ??_C@_05OPEIBKFE@?$CFd?5?$CFs@ 0046cbc8     sv_main.obj
 0002:00007bd0       ??_C@_0CN@BHDEFBPE@SV_ReadPackets?3?5fixing?5up?5a?5tra@ 0046cbd0     sv_main.obj
 0002:00007c00       ??_C@_0O@LIGDGICM@?$CFs?5timed?5out?6@ 0046cc00     sv_main.obj
 0002:00007c10       ??_C@_0CL@ODPNOPCC@Pause?5released?5since?5no?5players@ 0046cc10     sv_main.obj
 0002:00007c3c       ??_C@_0BD@BOIDKDFF@Updated?5needpass?4?6@ 0046cc3c     sv_main.obj
 0002:00007c50       ??_C@_08HHFKLNCD@needpass@ 0046cc50     sv_main.obj
 0002:00007c5c       ??_C@_05JGKCGPLH@drate@    0046cc5c     sv_main.obj
 0002:00007c64       ??_C@_04HCCHHEEF@rate@     0046cc64     sv_main.obj
 0002:00007c6c       ??_C@_05GJGEDGEA@99999@    0046cc6c     sv_main.obj
 0002:00007c74       ??_C@_08IFPOEKAB@qws_name@ 0046cc74     sv_main.obj
 0002:00007c80       ??_C@_0N@ONBAINIB@qws_fullname@ 0046cc80     sv_main.obj
 0002:00007c90       ??_C@_0BN@KHPNAICI@MVDSV?3?5MultiView?5Demo?5SerVer@ 0046cc90     sv_main.obj
 0002:00007cb0       ??_C@_0M@OJLLLMHK@qws_version@ 0046ccb0     sv_main.obj
 0002:00007cbc       ??_C@_09BCPNDGMB@0?434?9beta@ 0046ccbc     sv_main.obj
 0002:00007cc8       ??_C@_0N@CKPLIDBN@qws_buildnum@ 0046ccc8     sv_main.obj
 0002:00007cd8       ??_C@_0N@NAGACPPL@qws_platform@ 0046ccd8     sv_main.obj
 0002:00007ce8       ??_C@_0O@PNJKEICO@qws_builddate@ 0046cce8     sv_main.obj
 0002:00007cf8       ??_C@_0BG@DNHCKKJ@Jun?511?52021?0?513?304?324@ 0046ccf8     sv_main.obj
 0002:00007d10       ??_C@_0N@JLJGINLJ@qws_homepage@ 0046cd10     sv_main.obj
 0002:00007d20       ??_C@_0BI@KOGGEEGJ@https?3?1?1mvdsv?4deurk?4net@ 0046cd20     sv_main.obj
 0002:00007d38       ??_C@_0N@BBJAGCEM@qwm_fullname@ 0046cd38     sv_main.obj
 0002:00007d48       ??_C@_0M@NANMANCB@qwm_version@ 0046cd48     sv_main.obj
 0002:00007d54       ??_C@_0N@NGHLGMNA@qwm_buildnum@ 0046cd54     sv_main.obj
 0002:00007d64       ??_C@_0N@CMOAMADG@qwm_platform@ 0046cd64     sv_main.obj
 0002:00007d74       ??_C@_0O@BILDHGMM@qwm_builddate@ 0046cd74     sv_main.obj
 0002:00007d84       ??_C@_0N@GHBGGCHE@qwm_homepage@ 0046cd84     sv_main.obj
 0002:00007d94       ??_C@_07ONJEMHNO@svadmin@  0046cd94     sv_main.obj
 0002:00007d9c       ??_C@_05DNFKLKCD@addip@    0046cd9c     sv_main.obj
 0002:00007da4       ??_C@_08FODIKFHA@removeip@ 0046cda4     sv_main.obj
 0002:00007db0       ??_C@_06DDGIHMAP@listip@   0046cdb0     sv_main.obj
 0002:00007db8       ??_C@_07NHOPOI@writeip@    0046cdb8     sv_main.obj
 0002:00007dc0       ??_C@_09BNEILJBI@vip_addip@ 0046cdc0     sv_main.obj
 0002:00007dcc       ??_C@_0N@KOJCINKK@vip_removeip@ 0046cdcc     sv_main.obj
 0002:00007ddc       ??_C@_0L@ICEDIHCI@vip_listip@ 0046cddc     sv_main.obj
 0002:00007de8       ??_C@_0M@KFGMHBHI@vip_writeip@ 0046cde8     sv_main.obj
 0002:00007df4       ??_C@_03JLINDLFM@?$CK?$CFi@ 0046cdf4     sv_main.obj
 0002:00007df8       ??_C@_0BA@CPBEMCOP@MVDSV?50?434?9beta@ 0046cdf8     sv_main.obj
 0002:00007e08       ??_C@_08LLNLFMFB@?$CKversion@ 0046ce08     sv_main.obj
 0002:00007e14       ??_C@_0BA@KNEGDIEO@delayed_packets@ 0046ce14     sv_main.obj
 0002:00007e24       ??_C@_0L@NGENIABH@?$CI?$CFd?$CJ?$CF?9?410s@ 0046ce24     sv_main.obj
 0002:00007e30       ??_C@_0CB@LGMMPPAJ@?$CFs?5was?5kicked?5for?5name?5spamming@ 0046ce30     sv_main.obj
 0002:00007e54       ??_C@_0DB@NLOKPKCJ@You?5were?5kicked?5from?5the?5game?5f@ 0046ce54     sv_main.obj
 0002:00007e88       ??_C@_09EBIEGLMN@name?5spam@ 0046ce88     sv_main.obj
 0002:00007e94       ??_C@_0BH@JKIHBJAM@?$CFs?5changed?5name?5to?5?$CFs?6@ 0046ce94     sv_main.obj
 0002:00007eac       ??_C@_0M@GLMIKBMG@name?5change@ 0046ceac     sv_main.obj
 0002:00007eb8       ??_C@_04KADBPNCB@team@     0046ceb8     sv_main.obj
 0002:00007ec0       ??_C@_04EFPFHOHD@dupe@     0046cec0     sv_main.obj
 0002:00007ec8       ??_C@_03GLPMCEFE@msg@      0046cec8     sv_main.obj
 0002:00007ecc       ??_C@_02HJDGIJBC@sp@       0046cecc     sv_main.obj
 0002:00007ed0       ??_C@_0GJ@BOKEIKFH@WARNING?3?5sys_select_timeout?5can@ 0046ced0     sv_main.obj
 0002:00007f3c       ??_C@_06NDHANCHJ@?$CKadmin@ 0046cf3c     sv_main.obj
 0002:00007f44       ??_C@_0CJ@KOKIEAKF@Host_ClearMemory?5before?5host?5in@ 0046cf44     sv_main.obj
 0002:00007f70       ??_C@_0L@NBPPBPJB@?9minmemory@ 0046cf70     sv_main.obj
 0002:00007f7c       ??_C@_09EGDFIIOI@?9heapsize@ 0046cf7c     sv_main.obj
 0002:00007f88       ??_C@_04FHIPNAKI@?9mem@    0046cf88     sv_main.obj
 0002:00007f90       ??_C@_0DH@GNAGFNDI@Only?5?$CF4?41f?5megs?5of?5memory?5repor@ 0046cf90     sv_main.obj
 0002:00007fc8       ??_C@_0CJ@LOJKDNCG@?$DN?$DN?$DN?$DN?$DN?$DN?$DN?$DN?$DN?$DN?$DN?$DN?$DN?5Starting?5?$CFs?5?$DN?$DN?$DN?$DN?$DN@ 0046cfc8     sv_main.obj
 0002:00007ff4       ??_C@_0BB@NKLJLDFG@?9HOST_HUNKLEVEL?9@ 0046cff4     sv_main.obj
 0002:00008008       ??_C@_0BF@OLLCOKID@?$CF4?41f?5megabyte?5heap?6@ 0046d008     sv_main.obj
 0002:00008020       ??_C@_0BI@PBOGEBKB@QuakeWorld?5Initialized?6@ 0046d020     sv_main.obj
 0002:00008038       ??_C@_0BB@IFPFJOIL@exec?5server?4cfg?6@ 0046d038     sv_main.obj
 0002:0000804c       ??_C@_0N@MEHECAEJ@map?5mvdsv?9kg@ 0046d04c     sv_main.obj
 0002:0000805c       ??_C@_09OMBIMGI@map?5start@ 0046d05c     sv_main.obj
 0002:00008068       ??_C@_0BI@BPCPFNBI@Couldn?8t?5spawn?5a?5server@ 0046d068     sv_main.obj
 0002:00008080       ??_C@_0BF@CDKJKMPC@?$CFs?2?$CFs?2?$CFi?2?$CFs?2?$CFs?2?$CFi?$CFs?6@ 0046d080     sv_main.obj
 0002:00008098       ??_C@_0CG@MHKPCIAO@Can?8t?5write?5in?5?$CFs?5log?5file?3?5?$CFsN@ 0046d098     sv_main.obj
 0002:000080c0       ??_C@_0N@KDMKEDOB@?$FL?$CFs?$FN?4?$FL?$CFd?$FN?5?$CFs@ 0046d0c0     sv_main.obj
 0002:000080d0       ??_C@_0CH@FMNGBKJM@Can?8t?5write?5in?5?$CFs?5log?5file?3?5?$CFs?$CF@ 0046d0d0     sv_main.obj
 0002:000080f8       ??_C@_0BI@BNGLMAOP@Setting?5nomaster?5mode?4?6@ 0046d0f8     sv_master.obj
 0002:00008110       ??_C@_0BF@OKGGDNAO@Master?5server?5at?5?$CFs?6@ 0046d110     sv_master.obj
 0002:00008128       ??_C@_0BB@BBDMLHEP@Sending?5a?5ping?4?6@ 0046d128     sv_master.obj
 0002:0000813c       ??_C@_09JDOEOJJF@?$CFc?6?$CFi?6?$CFi?6@ 0046d13c     sv_master.obj
 0002:00008148       ??_C@_0BJ@FPIJBFOP@Sending?5heartbeat?5to?5?$CFs?6@ 0046d148     sv_master.obj
 0002:00008164       ??_C@_03PJCJOCBM@?$CFc?6@  0046d164     sv_master.obj
 0002:00008168       ??_C@_03DFHDCPPK@die@      0046d168     sv_mod_frags.obj
 0002:0000816c       ??_C@_03BPEJBGIP@axe@      0046d16c     sv_mod_frags.obj
 0002:00008170       ??_C@_02HMLFANIE@sg@       0046d170     sv_mod_frags.obj
 0002:00008174       ??_C@_03NLDKAEPI@ssg@      0046d174     sv_mod_frags.obj
 0002:00008178       ??_C@_02GIELDNKH@ng@       0046d178     sv_mod_frags.obj
 0002:0000817c       ??_C@_03MPMEDENL@sng@      0046d17c     sv_mod_frags.obj
 0002:00008180       ??_C@_02IEGONPOD@gl@       0046d180     sv_mod_frags.obj
 0002:00008184       ??_C@_02JOIDLOHI@rl@       0046d184     sv_mod_frags.obj
 0002:00008188       ??_C@_02GLMPOJMJ@lg@       0046d188     sv_mod_frags.obj
 0002:0000818c       ??_C@_04LHBLPPCP@rail@     0046d18c     sv_mod_frags.obj
 0002:00008194       ??_C@_05JHMPHPBG@drown@    0046d194     sv_mod_frags.obj
 0002:0000819c       ??_C@_04JCJDPOBL@trap@     0046d19c     sv_mod_frags.obj
 0002:000081a4       ??_C@_04GADAOEHK@tele@     0046d1a4     sv_mod_frags.obj
 0002:000081ac       ??_C@_06MNBFKEDH@dschrg@   0046d1ac     sv_mod_frags.obj
 0002:000081b4       ??_C@_06PDOCNEMD@squish@   0046d1b4     sv_mod_frags.obj
 0002:000081bc       ??_C@_04CELAAMIG@fall@     0046d1bc     sv_mod_frags.obj
 0002:000081c4       ??_C@_06KNGNCIMH@stomps@   0046d1c4     sv_mod_frags.obj
 0002:000081cc       ??_C@_05FAGFPHJG@start@    0046d1cc     sv_mod_frags.obj
 0002:000081d4       ??_C@_0BM@MBAELFIM@?$CI?4?$CK?$CJ?5sleeps?5with?5the?5fishes@ 0046d1d4     sv_mod_frags.obj
 0002:000081f0       ??_C@_0BD@OHMMFPCJ@?$CI?4?$CK?$CJ?5sucks?5it?5down@ 0046d1f0     sv_mod_frags.obj
 0002:00008204       ??_C@_0BM@EKKAEPLF@?$CI?4?$CK?$CJ?5gulped?5a?5load?5of?5slime@ 0046d204     sv_mod_frags.obj
 0002:00008220       ??_C@_0CA@FJLFHCCG@?$CI?4?$CK?$CJ?5can?8t?5exist?5on?5slime?5alone@ 0046d220     sv_mod_frags.obj
 0002:00008240       ??_C@_0BH@KBFMEKBD@?$CI?4?$CK?$CJ?5burst?5into?5flames@ 0046d240     sv_mod_frags.obj
 0002:00008258       ??_C@_0BK@HHCMALGA@?$CI?4?$CK?$CJ?5turned?5into?5hot?5slag@ 0046d258     sv_mod_frags.obj
 0002:00008274       ??_C@_0BM@KJADAELP@?$CI?4?$CK?$CJ?5visits?5the?5Volcano?5God@ 0046d274     sv_mod_frags.obj
 0002:00008290       ??_C@_0O@DAOLDCMA@?$CI?4?$CK?$CJ?5cratered@ 0046d290     sv_mod_frags.obj
 0002:000082a0       ??_C@_0BH@KCFACLKF@?$CI?4?$CK?$CJ?5fell?5to?5his?5death@ 0046d2a0     sv_mod_frags.obj
 0002:000082b8       ??_C@_0BH@IIMONICP@?$CI?4?$CK?$CJ?5fell?5to?5her?5death@ 0046d2b8     sv_mod_frags.obj
 0002:000082d0       ??_C@_0N@KNFIALPL@?$CI?4?$CK?$CJ?5blew?5up@ 0046d2d0     sv_mod_frags.obj
 0002:000082e0       ??_C@_0BA@BJBJPOIM@?$CI?4?$CK?$CJ?5was?5spiked@ 0046d2e0     sv_mod_frags.obj
 0002:000082f0       ??_C@_0BA@KOODEPAM@?$CI?4?$CK?$CJ?5was?5zapped@ 0046d2f0     sv_mod_frags.obj
 0002:00008300       ??_C@_0BE@NBKCBLL@?$CI?4?$CK?$CJ?5ate?5a?5lavaball@ 0046d300     sv_mod_frags.obj
 0002:00008314       ??_C@_0CF@BLEKBDK@?$CI?4?$CK?$CJ?5was?5telefragged?5by?5his?5tea@ 0046d314     sv_mod_frags.obj
 0002:0000833c       ??_C@_0CF@MFDADDHL@?$CI?4?$CK?$CJ?5was?5telefragged?5by?5her?5tea@ 0046d33c     sv_mod_frags.obj
 0002:00008364       ??_C@_09FKOCEEBH@?$CI?4?$CK?$CJ?5died@ 0046d364     sv_mod_frags.obj
 0002:00008370       ??_C@_0BE@ENEKOCGH@?$CI?4?$CK?$CJ?5tried?5to?5leave@ 0046d370     sv_mod_frags.obj
 0002:00008384       ??_C@_0BC@GNEDMJI@?$CI?4?$CK?$CJ?5was?5squished@ 0046d384     sv_mod_frags.obj
 0002:00008398       ??_C@_0O@ONDGEDI@?$CI?4?$CK?$CJ?5suicides@ 0046d398     sv_mod_frags.obj
 0002:000083a8       ??_C@_0CC@IOOBLFJK@?$CI?4?$CK?$CJ?5tries?5to?5put?5the?5pin?5back?5@ 0046d3a8     sv_mod_frags.obj
 0002:000083cc       ??_C@_0BN@LEPJEBLC@?$CI?4?$CK?$CJ?5becomes?5bored?5with?5life@ 0046d3cc     sv_mod_frags.obj
 0002:000083ec       ??_C@_0BM@DBKIFAH@?$CI?4?$CK?$CJ?5discovers?5blast?5radius@ 0046d3ec     sv_mod_frags.obj
 0002:00008408       ??_C@_0BL@HOEANJKJ@?$CI?4?$CK?$CJ?5electrocutes?5himself?4@ 0046d408     sv_mod_frags.obj
 0002:00008424       ??_C@_0BL@LIHJCAMB@?$CI?4?$CK?$CJ?5electrocutes?5herself?4@ 0046d424     sv_mod_frags.obj
 0002:00008440       ??_C@_0BP@LGOJCJKA@?$CI?4?$CK?$CJ?5discharges?5into?5the?5slime@ 0046d440     sv_mod_frags.obj
 0002:00008460       ??_C@_0BO@BJMJHLCH@?$CI?4?$CK?$CJ?5discharges?5into?5the?5lava@ 0046d460     sv_mod_frags.obj
 0002:00008480       ??_C@_0BP@HMALPFGL@?$CI?4?$CK?$CJ?5discharges?5into?5the?5water@ 0046d480     sv_mod_frags.obj
 0002:000084a0       ??_C@_0BI@LMDBNLCO@?$CI?4?$CK?$CJ?5heats?5up?5the?5water@ 0046d4a0     sv_mod_frags.obj
 0002:000084b8       ??_C@_0BJ@MGDNJBBH@?$CI?4?$CK?$CJ?5squished?5a?5teammate@ 0046d4b8     sv_mod_frags.obj
 0002:000084d4       ??_C@_0BK@HNHNGBGG@?$CI?4?$CK?$CJ?5mows?5down?5a?5teammate@ 0046d4d4     sv_mod_frags.obj
 0002:000084f0       ??_C@_0BI@ODPFGFMD@?$CI?4?$CK?$CJ?5checks?5his?5glasses@ 0046d4f0     sv_mod_frags.obj
 0002:00008508       ??_C@_0BI@GCNJMDK@?$CI?4?$CK?$CJ?5checks?5her?5glasses@ 0046d508     sv_mod_frags.obj
 0002:00008520       ??_C@_0CE@PCLLFNJ@?$CI?4?$CK?$CJ?5gets?5a?5frag?5for?5the?5other?5@ 0046d520     sv_mod_frags.obj
 0002:00008544       ??_C@_0BK@FLHIJOIK@?$CI?4?$CK?$CJ?5loses?5another?5friend@ 0046d544     sv_mod_frags.obj
 0002:00008560       ??_C@_0BN@DFJLOJDB@?$CI?4?$CK?$CJ?5was?5ax?9murdered?5by?5?$CI?4?$CK?$CJ@ 0046d560     sv_mod_frags.obj
 0002:00008580       ??_C@_0BP@PGDDFGLK@?$CI?4?$CK?$CJ?5was?5lead?5poisoned?5by?5?$CI?4?$CK?$CJ@ 0046d580     sv_mod_frags.obj
 0002:000085a0       ??_C@_0CA@KHPIAKBL@?$CI?4?$CK?$CJ?5chewed?5on?5?$CI?4?$CK?$CJ?8s?5boomstick@ 0046d5a0     sv_mod_frags.obj
 0002:000085c0       ??_C@_0CE@EILFBPBF@?$CI?4?$CK?$CJ?5ate?58?5loads?5of?5?$CI?4?$CK?$CJ?8s?5buck@ 0046d5c0     sv_mod_frags.obj
 0002:000085e4       ??_C@_0CE@FHCPPPBN@?$CI?4?$CK?$CJ?5ate?52?5loads?5of?5?$CI?4?$CK?$CJ?8s?5buck@ 0046d5e4     sv_mod_frags.obj
 0002:00008608       ??_C@_0BO@CMELBPEN@?$CI?4?$CK?$CJ?5was?5body?5pierced?5by?5?$CI?4?$CK?$CJ@ 0046d608     sv_mod_frags.obj
 0002:00008628       ??_C@_0BI@OABGPLNJ@?$CI?4?$CK?$CJ?5was?5nailed?5by?5?$CI?4?$CK?$CJ@ 0046d628     sv_mod_frags.obj
 0002:00008640       ??_C@_0BM@PNEEDMDJ@?$CI?4?$CK?$CJ?5was?5perforated?5by?5?$CI?4?$CK?$CJ@ 0046d640     sv_mod_frags.obj
 0002:0000865c       ??_C@_0BL@DBMALGKE@?$CI?4?$CK?$CJ?5was?5punctured?5by?5?$CI?4?$CK?$CJ@ 0046d65c     sv_mod_frags.obj
 0002:00008678       ??_C@_0BM@MIFGAOF@?$CI?4?$CK?$CJ?5was?5ventilated?5by?5?$CI?4?$CK?$CJ@ 0046d678     sv_mod_frags.obj
 0002:00008694       ??_C@_0CA@OIOHMAIN@?$CI?4?$CK?$CJ?5was?5straw?9cuttered?5by?5?$CI?4?$CK?$CJ@ 0046d694     sv_mod_frags.obj
 0002:000086b4       ??_C@_0BL@FFBJEIFK@?$CI?4?$CK?$CJ?5eats?5?$CI?4?$CK?$CJ?8s?5pineapple@ 0046d6b4     sv_mod_frags.obj
 0002:000086d0       ??_C@_0CC@NDLECLJC@?$CI?4?$CK?$CJ?5was?5gibbed?5by?5?$CI?4?$CK?$CJ?8s?5grena@ 0046d6d0     sv_mod_frags.obj
 0002:000086f4       ??_C@_0CH@MNJCNGEA@?$CI?4?$CK?$CJ?5was?5smeared?5by?5?$CI?4?$CK?$CJ?8s?5quad@ 0046d6f4     sv_mod_frags.obj
 0002:0000871c       ??_C@_0CK@CJNAMFFN@?$CI?4?$CK?$CJ?5was?5brutalized?5by?5?$CI?4?$CK?$CJ?8s?5q@ 0046d71c     sv_mod_frags.obj
 0002:00008748       ??_C@_0BJ@JEHCKJHO@?$CI?4?$CK?$CJ?5rips?5?$CI?4?$CK?$CJ?5a?5new?5one@ 0046d748     sv_mod_frags.obj
 0002:00008764       ??_C@_0CB@CAPMOBID@?$CI?4?$CK?$CJ?5was?5gibbed?5by?5?$CI?4?$CK?$CJ?8s?5rocke@ 0046d764     sv_mod_frags.obj
 0002:00008788       ??_C@_0BJ@HNIBPAFD@?$CI?4?$CK?$CJ?5rides?5?$CI?4?$CK?$CJ?8s?5rocket@ 0046d788     sv_mod_frags.obj
 0002:000087a4       ??_C@_0BK@PPMBLJJK@?$CI?4?$CK?$CJ?5accepts?5?$CI?4?$CK?$CJ?8s?5shaft@ 0046d7a4     sv_mod_frags.obj
 0002:000087c0       ??_C@_0BI@OBIBMNHC@?$CI?4?$CK?$CJ?5was?5railed?5by?5?$CI?4?$CK?$CJ@ 0046d7c0     sv_mod_frags.obj
 0002:000087d8       ??_C@_0BN@NGNKHLIH@?$CI?4?$CK?$CJ?5was?5telefragged?5by?5?$CI?4?$CK?$CJ@ 0046d7d8     sv_mod_frags.obj
 0002:000087f8       ??_C@_0BD@OIJKAIN@?$CI?4?$CK?$CJ?5squishes?5?$CI?4?$CK?$CJ@ 0046d7f8     sv_mod_frags.obj
 0002:0000880c       ??_C@_0BO@BNFMOMLD@?$CI?4?$CK?$CJ?5accepts?5?$CI?4?$CK?$CJ?8s?5discharge@ 0046d80c     sv_mod_frags.obj
 0002:0000882c       ??_C@_0BN@OLBFJFIK@?$CI?4?$CK?$CJ?5drains?5?$CI?4?$CK?$CJ?8s?5batteries@ 0046d82c     sv_mod_frags.obj
 0002:0000884c       ??_C@_0CH@PBENFKAD@?$CI?4?$CK?$CJ?5gets?5a?5natural?5disaster?5fr@ 0046d84c     sv_mod_frags.obj
 0002:00008874       ??_C@_0DI@DOOICHJH@WARNING?3?5sv_mod_msg_file_OnChan@ 0046d874     sv_mod_frags.obj
 0002:000088ac       ??_C@_0DH@JKJDAKEE@Initialized?5default?5mod?5message@ 0046d8ac     sv_mod_frags.obj
 0002:000088e4       ??_C@_01IPJKGB@?$CD@       0046d8e4     sv_mod_frags.obj
 0002:000088e8       ??_C@_0DM@GADMFAPC@Initialized?5mod?5messages?5from?5f@ 0046d8e8     sv_mod_frags.obj
 0002:00008924       ??_C@_0DG@HKHOBJLA@WARNING?3?5qwmsg_pcre_check?3?5pcre@ 0046d924     sv_mod_frags.obj
 0002:0000895c       ??_C@_0N@NCHEBDJF@?$CFs?2?$CFs?2?$CFs?2?$CFd?6@ 0046d95c     sv_mod_frags.obj
 0002:0000896c       ??_C@_09LBKLNJGA@?$CFs?2?$CFs?2?$CFd?6@ 0046d96c     sv_mod_frags.obj
 0002:00008978       ??_C@_0CC@NKLEKCPL@WARNING?3?5MAX_BACK_BUFFERS?5for?5?$CF@ 0046d978     sv_nchan.obj
 0002:0000899c       ??_C@_0DA@KHHGFPLJ@WARNING?3?5backbuf?5?$FL?$CFd?$FN?5reliable?5@ 0046d99c     sv_nchan.obj
 0002:000089cc       ??_C@_0P@FKNMIPLB@sv_maxvelocity@ 0046d9cc     sv_phys.obj
 0002:000089dc       ??_C@_04OJDKMIMG@2000@     0046d9dc     sv_phys.obj
 0002:000089e4       ??_C@_0L@FKMMBKBD@sv_gravity@ 0046d9e4     sv_phys.obj
 0002:000089f0       ??_C@_03BAAJCDMO@800@      0046d9f0     sv_phys.obj
 0002:000089f4       ??_C@_0N@LFAHFFEG@sv_stopspeed@ 0046d9f4     sv_phys.obj
 0002:00008a04       ??_C@_03GNABGMEE@100@      0046da04     sv_phys.obj
 0002:00008a08       ??_C@_0M@NAINEIIC@sv_maxspeed@ 0046da08     sv_phys.obj
 0002:00008a14       ??_C@_03MEIMHAKB@320@      0046da14     sv_phys.obj
 0002:00008a18       ??_C@_0BF@IDJMGIDH@sv_spectatormaxspeed@ 0046da18     sv_phys.obj
 0002:00008a30       ??_C@_03OCGDPLBD@500@      0046da30     sv_phys.obj
 0002:00008a34       ??_C@_0O@OFAOFHGI@sv_accelerate@ 0046da34     sv_phys.obj
 0002:00008a44       ??_C@_0BB@OKHOGIP@sv_airaccelerate@ 0046da44     sv_phys.obj
 0002:00008a58       ??_C@_0L@HEAENICD@sv_antilag@ 0046da58     sv_phys.obj
 0002:00008a64       ??_C@_0BD@OHNDLJDO@sv_antilag_no_pred@ 0046da64     sv_phys.obj
 0002:00008a78       ??_C@_0BH@CGPCCHBJ@sv_antilag_projectiles@ 0046da78     sv_phys.obj
 0002:00008a90       ??_C@_0BD@ENGAEIGL@sv_wateraccelerate@ 0046da90     sv_phys.obj
 0002:00008aa4       ??_C@_0M@CKLNABFC@sv_friction@ 0046daa4     sv_phys.obj
 0002:00008ab0       ??_C@_01FAMBOPH@4@         0046dab0     sv_phys.obj
 0002:00008ab4       ??_C@_0BB@FMKHIHFO@sv_waterfriction@ 0046dab4     sv_phys.obj
 0002:00008ac8       ??_C@_09DCEHNMIH@pm_ktjump@ 0046dac8     sv_phys.obj
 0002:00008ad4       ??_C@_0BB@HMIJMCID@pm_bunnyspeedcap@ 0046dad4     sv_phys.obj
 0002:00008ae8       ??_C@_0M@FPGBODLD@pm_slidefix@ 0046dae8     sv_phys.obj
 0002:00008af4       ??_C@_0L@JMCBMFLH@pm_airstep@ 0046daf4     sv_phys.obj
 0002:00008b00       ??_C@_0L@EDFIKKAN@pm_pground@ 0046db00     sv_phys.obj
 0002:00008b0c       ??_C@_0BK@FPJNFHPF@Got?5a?5NaN?5velocity?5on?5?$CFs?6@ 0046db0c     sv_phys.obj
 0002:00008b28       ??_C@_0BI@JOACCKMB@Got?5a?5NaN?5origin?5on?5?$CFs?6@ 0046db28     sv_phys.obj
 0002:00008b40       ??_C@_0BJ@JNHHPALA@SV_FlyMove?3?5?$CBtrace?4e?4ent@ 0046db40     sv_phys.obj
 0002:00008b5c       ??_C@_0BB@PJCBIEAN@misc?1h2ohit1?4wav@ 0046db5c     sv_phys.obj
 0002:00008b70       ??_C@_0BB@KEKBCOBI@demon?1dland2?4wav@ 0046db70     sv_phys.obj
 0002:00008b84       ??_C@_0BM@BJFGOKHH@SV_Physics?3?5bad?5movetype?5?$CFi@ 0046db84     sv_phys.obj
 0002:00008ba0       ??_C@_0L@GCPHMIPK@?$CFs?1save?1?$CFs@ 0046dba0     sv_save.obj
 0002:00008bac       ??_C@_0O@HKFJJPPG@Unnamed_Level@ 0046dbac     sv_save.obj
 0002:00008bbc       ??_C@_0P@NFPGHKFE@kills?3?$CF3i?1?$CF?93i@ 0046dbbc     sv_save.obj
 0002:00008bcc       ??_C@_0CF@OIOIEACF@Usage?3?5?$CFs?5?$DMsavefname?$DO?5?3?5save?5a?5@ 0046dbcc     sv_save.obj
 0002:00008bf4       ??_C@_0CG@KMGILLKM@Relative?5pathfnames?5are?5not?5all@ 0046dbf4     sv_save.obj
 0002:00008c1c       ??_C@_0BL@KICGGNOK@Not?5playing?5a?5local?5game?4?6@ 0046dc1c     sv_save.obj
 0002:00008c38       ??_C@_0BP@OJOGGEDC@Can?8t?5save?5multiplayer?5games?4?6@ 0046dc38     sv_save.obj
 0002:00008c58       ??_C@_0CE@CKLALIEL@Can?8t?5save?0?5client?5?$CD0?5not?5spawn@ 0046dc58     sv_save.obj
 0002:00008c7c       ??_C@_0CE@CGECOEOH@Can?8t?5save?5game?5with?5a?5dead?5pla@ 0046dc7c     sv_save.obj
 0002:00008ca0       ??_C@_04ONGOJJC@?4sav@     0046dca0     sv_save.obj
 0002:00008ca8       ??_C@_0BG@GBCGIKFH@Saving?5game?5to?5?$CFs?4?4?4?6@ 0046dca8     sv_save.obj
 0002:00008cc0       ??_C@_0BH@DBPHKMFK@ERROR?3?5couldn?8t?5open?4?6@ 0046dcc0     sv_save.obj
 0002:00008cd8       ??_C@_03PELOGHMK@?$CFi?6@  0046dcd8     sv_save.obj
 0002:00008cdc       ??_C@_03PPOCCAPH@?$CFf?6@  0046dcdc     sv_save.obj
 0002:00008ce0       ??_C@_03PMGGPEJJ@?$CFd?6@  0046dce0     sv_save.obj
 0002:00008ce4       ??_C@_02LKFOJGBE@m?6@      0046dce4     sv_save.obj
 0002:00008ce8       ??_C@_06GAOLIIF@done?4?6@  0046dce8     sv_save.obj
 0002:00008cf0       ??_C@_0CE@BFOJGJHP@Usage?3?5?$CFs?5?$DMsavename?$DO?5?3?5load?5a?5g@ 0046dcf0     sv_save.obj
 0002:00008d14       ??_C@_0BJ@GCHLOBJE@Loading?5game?5from?5?$CFs?4?4?4?6@ 0046dd14     sv_save.obj
 0002:00008d30       ??_C@_0BN@JCNLNGKO@Error?5reading?5savegame?5data?6@ 0046dd30     sv_save.obj
 0002:00008d50       ??_C@_0CA@HKIDMDI@Savegame?5is?5version?5?$CFi?0?5not?5?$CFi?6@ 0046dd50     sv_save.obj
 0002:00008d70       ??_C@_0BD@FEIOAKGP@Couldn?8t?5load?5map?6@ 0046dd70     sv_save.obj
 0002:00008d84       ??_C@_0BL@IPINMFCJ@Couldn?8t?5read?5lightstyles?6@ 0046dd84     sv_save.obj
 0002:00008da0       ??_C@_0BJ@MICHJLGK@Loadgame?5buffer?5overflow@ 0046dda0     sv_save.obj
 0002:00008dbc       ??_C@_01HCONENDN@?$HL@     0046ddbc     sv_save.obj
 0002:00008dc0       ??_C@_0BK@FACFJIHN@First?5token?5isn?8t?5a?5brace@ 0046ddc0     sv_save.obj
 0002:00008ddc       ??_C@_0CE@CIGNFOIP@SV_PrintToClient?3?5client?5not?5re@ 0046dddc     sv_send.obj
 0002:00008e00       ??_C@_0BI@MANJEKA@SV_Multicast?3?5bad?5to?3?$CFi@ 0046de00     sv_send.obj
 0002:00008e18       ??_C@_0BL@BNGIFDCB@SV_StartSound?3?5volume?5?$DN?5?$CFi@ 0046de18     sv_send.obj
 0002:00008e34       ??_C@_0CA@MCKJGPFI@SV_StartSound?3?5attenuation?5?$DN?5?$CFf@ 0046de34     sv_send.obj
 0002:00008e54       ??_C@_0BM@OCGBIGJF@SV_StartSound?3?5channel?5?$DN?5?$CFi@ 0046de54     sv_send.obj
 0002:00008e70       ??_C@_0CB@GCLOLMDM@SV_StartSound?3?5?$CFs?5not?5precached@ 0046de70     sv_send.obj
 0002:00008e94       ??_C@_04IAJNPMLG@rsnd@     0046de94     sv_send.obj
 0002:00008e9c       ??_C@_0BA@EPFLJKIG@progs?1spike?4mdl@ 0046de9c     sv_send.obj
 0002:00008eac       ??_C@_0BC@PHNIBBHG@progs?1s_spike?4mdl@ 0046deac     sv_send.obj
 0002:00008ec0       ??_C@_0CF@LMJNHPAG@WARNING?3?5datagram?5overflowed?5fo@ 0046dec0     sv_send.obj
 0002:00008ee8       ??_C@_0CA@BILMKJDC@WARNING?3?5msg?5overflowed?5for?5?$CFs?6@ 0046dee8     sv_send.obj
 0002:00008f08       ??_C@_0BG@JAEHNNPG@?$CFs?3?5backbuf?5?$CFd?5bytes?6@ 0046df08     sv_send.obj
 0002:00008f20       ??_C@_0P@ECNPGMHC@?$CFs?5overflowed?6@ 0046df20     sv_send.obj
 0002:00008f30       ??_C@_0CD@KIOMDPCP@WARNING?3?5reliable?5overflow?5for?5@ 0046df30     sv_send.obj
 0002:00008f54       ??_C@_0CP@GCEBNFC@WARNING?3?5msg?5overflowed?5in?5SV_S@ 0046df54     sv_send.obj
 0002:00008f84       ??_C@_0DJ@HNFEBNIN@WARNING?3?5demo?4datagram?5overflow@ 0046df84     sv_send.obj
 0002:00008fc0       ??_C@_0N@KHEOLGLE@sys_nostdout@ 0046dfc0     sv_sys_win.obj
 0002:00008fd0       ??_C@_09BGOGEBJO@sys_sleep@ 0046dfd0     sv_sys_win.obj
 0002:00008fdc       ??_C@_06KDAGBJJI@?$CFs?1?$CK?4?$CK@ 0046dfdc     sv_sys_win.obj
 0002:00008fe4       ??_C@_0BK@KHILBPCC@Restart?5failed?3?5?$CI?$CFi?$CJ?3?5?$CFs?6@ 0046dfe4     sv_sys_win.obj
 0002:00009000       ??_C@_0L@CBINMEFE@?9nohwtimer@ 0046e000     sv_sys_win.obj
 0002:0000900c       ??_C@_0BC@LGPAMIPH@?$CFY?9?$CFm?9?$CFd?5?$CFH?3?$CFM?3?$CFS@ 0046e00c     sv_sys_win.obj
 0002:00009020       ??_C@_08MPICMHNM@?$FL?$CFs?$FN?5?$CFs?6@ 0046e020     sv_sys_win.obj
 0002:0000902c       ??_C@_0BF@JBGMMOFJ@Couldn?8t?5get?5OS?5info@ 0046e02c     sv_sys_win.obj
 0002:00009044       ??_C@_0CI@BNMAFFHI@MVDSV?5requires?5at?5least?5Win95?5o@ 0046e044     sv_sys_win.obj
 0002:0000906c       ??_C@_0M@LBJJOJNB@?9nopriority@ 0046e06c     sv_sys_win.obj
 0002:00009078       ??_C@_0BL@DLAEMMJG@SetPriorityClass?$CI?$CJ?5failed?6@ 0046e078     sv_sys_win.obj
 0002:00009094       ??_C@_0CE@DLAFLNJJ@Process?5priority?5class?5set?5to?5H@ 0046e094     sv_sys_win.obj
 0002:000090b8       ??_C@_0BE@KAHHNHCE@?$CFs?2sh?4exe?5?$CFs?4qws?5?$CFs@ 0046e0b8     sv_sys_win.obj
 0002:000090cc       ??_C@_03GFPEDOMH@?2?$CFs@  0046e0cc     sv_sys_win.obj
 0002:000090d0       ??_C@_0M@PDOKAJJG@sv_spectalk@ 0046e0d0     sv_user.obj
 0002:000090dc       ??_C@_0BD@FDBFHEIG@sv_sayteam_to_spec@ 0046e0dc     sv_user.obj
 0002:000090f0       ??_C@_0M@DDDBLIEA@sv_mapcheck@ 0046e0f0     sv_user.obj
 0002:000090fc       ??_C@_0L@BFDDJAOD@sv_minping@ 0046e0fc     sv_user.obj
 0002:00009108       ??_C@_0L@PDFDDPAC@sv_maxping@ 0046e108     sv_user.obj
 0002:00009114       ??_C@_0BG@DDIINEOK@sv_enable_cmd_minping@ 0046e114     sv_user.obj
 0002:0000912c       ??_C@_0BI@ONOGOHFD@sv_kickuserinfospamtime@ 0046e12c     sv_user.obj
 0002:00009144       ??_C@_0BJ@LBLHANEJ@sv_kickuserinfospamcount@ 0046e144     sv_user.obj
 0002:00009160       ??_C@_0BB@FAGIIMCF@sv_maxuploadsize@ 0046e160     sv_user.obj
 0002:00009174       ??_C@_07BKKOAKCI@1048576@  0046e174     sv_user.obj
 0002:0000917c       ??_C@_0BK@NNFDJEDB@sv_downloadchunksperframe@ 0046e17c     sv_user.obj
 0002:00009198       ??_C@_07LHIMJCLF@sv_voip@  0046e198     sv_user.obj
 0002:000091a0       ??_C@_0P@JCKLLKCL@sv_voip_record@ 0046e1a0     sv_user.obj
 0002:000091b0       ??_C@_0N@KNPNIDNC@sv_voip_echo@ 0046e1b0     sv_user.obj
 0002:000091c0       ??_C@_0M@HLHEMMJL@sv_maxpitch@ 0046e1c0     sv_user.obj
 0002:000091cc       ??_C@_02PFIAKEDG@80@       0046e1cc     sv_user.obj
 0002:000091d0       ??_C@_0M@KMJPHONK@sv_minpitch@ 0046e1d0     sv_user.obj
 0002:000091dc       ??_C@_03HCIBJCOG@?970@     0046e1dc     sv_user.obj
 0002:000091e0       ??_C@_08OLPEAICL@maxpitch@ 0046e1e0     sv_user.obj
 0002:000091ec       ??_C@_08DMBPLKGK@minpitch@ 0046e1ec     sv_user.obj
 0002:000091f8       ??_C@_0GK@ENIAGKCL@?6Your?5ping?5is?5too?5high?5for?5this@ 0046e1f8     sv_user.obj
 0002:00009264       ??_C@_09ENPJIMFN@cmd?5pext?6@ 0046e264     sv_user.obj
 0002:00009270       ??_C@_0HD@LLOLDNMO@WARNING?3?5Incorrect?5server?5ip?5ad@ 0046e270     sv_user.obj
 0002:000092e4       ??_C@_0BO@POOALFLP@packet?5?$CFs?5?$CCip?5?$CFd?5?$CFd?$CC?6cmd?5new?6@ 0046e2e4     sv_user.obj
 0002:00009304       ??_C@_0CF@KPDKAIAN@?$CFc?6Failed?5to?5validate?5client?8s?5@ 0046e304     sv_user.obj
 0002:0000932c       ??_C@_0BM@KCBHICFH@VIP?5spectator?5?$CFs?5connected?6@ 0046e32c     sv_user.obj
 0002:00009348       ??_C@_0BI@NMOHENGD@Spectator?5?$CFs?5connected?6@ 0046e348     sv_user.obj
 0002:00009360       ??_C@_0BF@MGDMLGNM@Client?5?$CFs?5connected?6@ 0046e360     sv_user.obj
 0002:00009378       ??_C@_0BBC@BLHGNNJD@?6?6?6?6Your?5client?5lacks?5the?5neces@ 0046e378     sv_user.obj
 0002:00009490       ??_C@_0BBF@LAOHKOBG@?6?6WARNING?3?6Your?5client?5lacks?5su@ 0046e490     sv_user.obj
 0002:000095a8       ??_C@_0DE@JAFEIMLN@WARNING?5?$CFs?3?5?$FLSV_New?$FN?5Back?5buffe@ 0046e5a8     sv_user.obj
 0002:000095dc       ??_C@_0L@OOIFDLDA@dropped?5?$CFd@ 0046e5dc     sv_user.obj
 0002:000095e8       ??_C@_0CI@CPAOPOFA@soundlist?5not?5valid?5?9?9?5already?5@ 0046e5e8     sv_user.obj
 0002:00009610       ??_C@_0CF@HGFFIBCJ@SV_Soundlist_f?5from?5different?5l@ 0046e610     sv_user.obj
 0002:00009638       ??_C@_0CJ@EJPKABBG@SV_Soundlist_f?3?5Invalid?5soundli@ 0046e638     sv_user.obj
 0002:00009664       ??_C@_0DK@LPPOHPMA@WARNING?5?$CFs?3?5?$FLSV_Soundlist?$FN?5Back@ 0046e664     sv_user.obj
 0002:000096a0       ??_C@_06DBCJJNCC@progs?1@  0046e6a0     sv_user.obj
 0002:000096a8       ??_C@_04IPGPBAO@?4mdl@     0046e6a8     sv_user.obj
 0002:000096b0       ??_C@_0CI@DKLODAPO@modellist?5not?5valid?5?9?9?5already?5@ 0046e6b0     sv_user.obj
 0002:000096d8       ??_C@_0CF@MHGPPLHG@SV_Modellist_f?5from?5different?5l@ 0046e6d8     sv_user.obj
 0002:00009700       ??_C@_0CJ@KEOKGDML@SV_Modellist_f?3?5Invalid?5modelli@ 0046e700     sv_user.obj
 0002:0000972c       ??_C@_07NIHKIANJ@?1?1vwep?5@ 0046e72c     sv_user.obj
 0002:00009734       ??_C@_0DK@PDKGBEKA@WARNING?5?$CFs?3?5?$FLSV_Modellist?$FN?5Back@ 0046e734     sv_user.obj
 0002:00009770       ??_C@_0CH@BFEDEJIN@prespawn?5not?5valid?5?9?9?5already?5s@ 0046e770     sv_user.obj
 0002:00009798       ??_C@_0CE@MKFLMPKB@SV_PreSpawn_f?5from?5different?5le@ 0046e798     sv_user.obj
 0002:000097c0       ??_C@_0HG@OANHGFPD@Map?5model?5file?5does?5not?5match?5?$CI@ 0046e7c0     sv_user.obj
 0002:00009838       ??_C@_0DJ@FKBHDJCB@WARNING?5?$CFs?3?5?$FLSV_PreSpawn?$FN?5Back?5@ 0046e838     sv_user.obj
 0002:00009874       ??_C@_0BE@FPEJJCJ@cmd?5prespawn?5?$CFi?5?$CFi?6@ 0046e874     sv_user.obj
 0002:00009888       ??_C@_0CE@HLDACFII@Spawn?5not?5valid?5?9?9?5already?5spaw@ 0046e888     sv_user.obj
 0002:000098ac       ??_C@_0CB@CLMNMFBG@SV_Spawn_f?5from?5different?5level@ 0046e8ac     sv_user.obj
 0002:000098d0       ??_C@_0CC@DPINOKGA@SV_Spawn_f?3?5Invalid?5client?5star@ 0046e8d0     sv_user.obj
 0002:000098f4       ??_C@_0BB@LJEMFIFO@cmd?5spawn?5?$CFi?5?$CFd?6@ 0046e8f4     sv_user.obj
 0002:00009908       ??_C@_0BC@IHPKIKNE@info_player_start@ 0046e908     sv_user.obj
 0002:0000991c       ??_C@_0CB@PAPDACLK@SV_Begin_f?5from?5different?5level@ 0046e91c     sv_user.obj
 0002:00009940       ??_C@_06BCODEBIG@pmodel@   0046e940     sv_user.obj
 0002:00009948       ??_C@_06CHAFPCOP@emodel@   0046e948     sv_user.obj
 0002:00009950       ??_C@_0DA@EJCGAMJA@?$CFs?5WARNING?3?5missing?5player?1eyes@ 0046e950     sv_user.obj
 0002:00009980       ??_C@_0DF@FFFOBGNH@?$CFs?5WARNING?3?5non?5standard?5player@ 0046e980     sv_user.obj
 0002:000099b8       ??_C@_0BD@EBKLBEDB@Server?5is?5paused?4?6@ 0046e9b8     sv_user.obj
 0002:000099cc       ??_C@_0BH@NLECBAMA@All?5demos?5downloaded?4?6@ 0046e9cc     sv_user.obj
 0002:000099e4       ??_C@_0BI@FBMJHEB@Incorrect?5demo?5number?4?6@ 0046e9e4     sv_user.obj
 0002:000099fc       ??_C@_0BL@GGPNFBHI@Demo?5number?5?$CFd?5not?5found?4?6@ 0046e9fc     sv_user.obj
 0002:00009a18       ??_C@_0BD@EFBGEHHD@download?5demos?1?$CFs?6@ 0046ea18     sv_user.obj
 0002:00009a2c       ??_C@_0BF@OAHLBBPD@Download?5completed?4?6@ 0046ea2c     sv_user.obj
 0002:00009a44       ??_C@_06DJGFOGNC@?2chunk@  0046ea44     sv_user.obj
 0002:00009a4c       ??_C@_0BA@CALMCNCI@Downloading?3?5?$CFd@ 0046ea4c     sv_user.obj
 0002:00009a5c       ??_C@_0BI@GEFIJMFH@?5?$DN?$DO?5?$CFd?0?5total?3?5?$CFd?5?$DN?$DO?5?$CFd@ 0046ea5c     sv_user.obj
 0002:00009a74       ??_C@_05MDJMFCEM@?$DL?5?$CFd?6@ 0046ea74     sv_user.obj
 0002:00009a7c       ??_C@_0P@OIEPNADL@Upload?5denied?6@ 0046ea7c     sv_user.obj
 0002:00009a8c       ??_C@_06MEIPGLPA@stopul@   0046ea8c     sv_user.obj
 0002:00009a94       ??_C@_0BB@EBCJILEI@Can?8t?5create?5?$CFs?6@ 0046ea94     sv_user.obj
 0002:00009aa8       ??_C@_0BJ@MDDDOCPD@Receiving?5?$CFs?5from?5?$CFd?4?4?4?6@ 0046eaa8     sv_user.obj
 0002:00009ac4       ??_C@_0CA@BHIKHDMG@Server?5receiving?5?$CFs?5from?5?$CFd?4?4?4?6@ 0046eac4     sv_user.obj
 0002:00009ae4       ??_C@_01JOAMLHOP@?9@       0046eae4     sv_user.obj
 0002:00009ae8       ??_C@_0BF@HOCIMDEF@UPLOAD?3?5?$CFd?5received?6@ 0046eae8     sv_user.obj
 0002:00009b00       ??_C@_07IKNCLCJO@nextul?6@ 0046eb00     sv_user.obj
 0002:00009b08       ??_C@_0BH@ECHACMML@?6?$CFs?5upload?5completed?4?6@ 0046eb08     sv_user.obj
 0002:00009b20       ??_C@_0DG@OBAKFDMJ@?$CFs?5upload?5completed?4?6To?5downloa@ 0046eb20     sv_user.obj
 0002:00009b58       ??_C@_0BF@MNOMHNBP@download?5?$FLfilename?$FN?6@ 0046eb58     sv_user.obj
 0002:00009b70       ??_C@_04FPOLKAEB@?4log@    0046eb70     sv_user.obj
 0002:00009b78       ??_C@_06NGFAGOMG@skins?1@  0046eb78     sv_user.obj
 0002:00009b80       ??_C@_06PBLIODKG@sound?1@  0046eb80     sv_user.obj
 0002:00009b88       ??_C@_05HBJBFCNN@maps?1@   0046eb88     sv_user.obj
 0002:00009b90       ??_C@_08LLEBPMBA@demonum?1@ 0046eb90     sv_user.obj
 0002:00009ba0       ??_C@_0LC@IKDHCPOD@usage?3?5download?5demonum?1num?6if?5@ 0046eba0     sv_user.obj
 0002:00009c54       ??_C@_0BM@JHMKEFCF@Couldn?8t?5download?5?$CFs?5to?5?$CFs?6@ 0046ec54     sv_user.obj
 0002:00009c70       ??_C@_0BG@KAFIHPPA@Downloading?5?$CFs?5to?5?$CFs?6@ 0046ec70     sv_user.obj
 0002:00009c88       ??_C@_0BL@JGEHOAMC@Map?5?$CFs?5is?5?$CF?40fKB?5?$CI?$CF?42fMB?$CJ?6@ 0046ec88     sv_user.obj
 0002:00009ca4       ??_C@_0BL@PKACEOAK@Download?5this?5map?5faster?3?6@ 0046eca4     sv_user.obj
 0002:00009cc0       ??_C@_06PFHDILIP@?$CFs?$CFs?6?6@ 0046ecc0     sv_user.obj
 0002:00009cc8       ??_C@_0BM@CHKHFBBH@File?5?$CFs?5is?5?$CF?40fKB?5?$CI?$CF?42fMB?$CJ?6@ 0046ecc8     sv_user.obj
 0002:00009ce4       ??_C@_0BJ@GODPFEJH@Download?5queue?5cleared?4?6@ 0046ece4     sv_user.obj
 0002:00009d00       ??_C@_0BH@JLECJJND@Download?5queue?5empty?4?6@ 0046ed00     sv_user.obj
 0002:00009d18       ??_C@_0CA@GMNLGFKN@Download?5queue?5already?5exists?4?6@ 0046ed18     sv_user.obj
 0002:00009d38       ??_C@_0DG@DJPIJDE@Download?5a?5demo?5from?5the?5server@ 0046ed38     sv_user.obj
 0002:00009d70       ??_C@_06CGLBFDJJ@cmd?5dl@  0046ed70     sv_user.obj
 0002:00009d78       ??_C@_0BCH@EEAFAPB@?6?$CFs?6Usage?3?6?5?5?$CFs?5?$CFs?5?$FL?$CFs?5?$FL?$CFs?$FN?$FN?6?5?5@ 0046ed78     sv_user.obj
 0002:00009ea0       ??_C@_0CO@LABLKPHO@Download?5stopped?5and?5download?5q@ 0046eea0     sv_user.obj
 0002:00009ed0       ??_C@_0O@HLBHCPB@?$FLSPEC?$FN?5?$CFs?3?5?$CFs@ 0046eed0     sv_user.obj
 0002:00009ee0       ??_C@_08BNFNJILH@?$CI?$CFs?$CJ?3?5?$CFs@ 0046eee0     sv_user.obj
 0002:00009eec       ??_C@_06DJHOIPC@?$CFs?3?5?$CFs@ 0046eeec     sv_user.obj
 0002:00009ef4       ??_C@_0CE@GPOLBCJB@You?5can?8t?5talk?5for?5?$CFd?5more?5seco@ 0046eef4     sv_user.obj
 0002:00009f18       ??_C@_0P@NMHEBFEP@FloodProt?3?5?$CFs?6@ 0046ef18     sv_user.obj
 0002:00009f28       ??_C@_0CL@ICJAHLLM@FloodProt?3?5You?5can?8t?5talk?5for?5?$CF@ 0046ef28     sv_user.obj
 0002:00009f54       ??_C@_0CA@DLLLEFCH@Can?8t?5suicide?5?9?9?5already?5dead?$CB?6@ 0046ef54     sv_user.obj
 0002:00009f74       ??_C@_0BE@MCELCJJK@Pause?5not?5allowed?4?6@ 0046ef74     sv_user.obj
 0002:00009f88       ??_C@_0BL@GFHKHDIC@Spectators?5can?5not?5pause?4?6@ 0046ef88     sv_user.obj
 0002:00009fa4       ??_C@_0BE@CKGNNEGF@?$CFs?5paused?5the?5game?6@ 0046efa4     sv_user.obj
 0002:00009fb8       ??_C@_0BG@IKCNKMI@?$CFs?5unpaused?5the?5game?6@ 0046efb8     sv_user.obj
 0002:00009fd0       ??_C@_0M@PFBILJFK@?$CFs?5dropped?6@ 0046efd0     sv_user.obj
 0002:00009fdc       ??_C@_0BJ@EDHFPJHP@Invalid?5client?5to?5track?6@ 0046efdc     sv_user.obj
 0002:00009ff8       ??_C@_0BE@MNLELFEJ@Current?5rate?5is?5?$CFi?6@ 0046eff8     sv_user.obj
 0002:0000a00c       ??_C@_0BE@DABEEFHI@Net?5rate?5set?5to?5?$CFi?6@ 0046f00c     sv_user.obj
 0002:0000a020       ??_C@_0N@KOLHMLEL@Logged?5out?4?6@ 0046f020     sv_user.obj
 0002:0000a030       ??_C@_0M@BOOPIHAI@Logged?5in?4?6@ 0046f030     sv_user.obj
 0002:0000a03c       ??_C@_0BO@BGPMPPMP@Client?5not?5tagged?5to?5upload?4?6@ 0046f03c     sv_user.obj
 0002:0000a05c       ??_C@_0CL@LCDGKPNO@upload?5?$FLlocal?5filename?$FN?5?$FLremote@ 0046f05c     sv_user.obj
 0002:0000a088       ??_C@_0BA@BCLIENAD@Bad?5file?5name?4?6@ 0046f088     sv_user.obj
 0002:0000a098       ??_C@_0BG@HLKADGCC@File?5already?5exists?4?6@ 0046f098     sv_user.obj
 0002:0000a0b0       ??_C@_0BB@FMILHGFC@cmd?5fileul?5?$CC?$CFs?$CC?6@ 0046f0b0     sv_user.obj
 0002:0000a0c4       ??_C@_04BLJLMHHG@chat@     0046f0c4     sv_user.obj
 0002:0000a0cc       ??_C@_06LFOIHHME@gender@   0046f0cc     sv_user.obj
 0002:0000a0d4       ??_C@_0CB@BIAEPKLN@?$CFs?5was?5kicked?5for?5userinfo?5spam@ 0046f0d4     sv_user.obj
 0002:0000a0f8       ??_C@_0DF@JLDCFBMG@You?5were?5kicked?5from?5the?5game?5f@ 0046f0f8     sv_user.obj
 0002:0000a130       ??_C@_0O@MIIHNAIE@userinfo?5spam@ 0046f130     sv_user.obj
 0002:0000a140       ??_C@_0BF@CNHFFNEA@User?5info?5settings?3?6@ 0046f140     sv_user.obj
 0002:0000a158       ??_C@_0BL@NMPJHFPK@User?5info?5settings?5short?3?6@ 0046f158     sv_user.obj
 0002:0000a174       ??_C@_0CC@LDGGIOMB@usage?3?5setinfo?5?$FL?5?$DMkey?$DO?5?$DMvalue?$DO?5@ 0046f174     sv_user.obj
 0002:0000a198       ??_C@_0CP@MBJHMFGM@You?5can?8t?5change?5your?5name?5whil@ 0046f198     sv_user.obj
 0002:0000a1c8       ??_C@_0DM@DAEHLIGJ@You?5can?8t?5change?5your?5name?5whil@ 0046f1c8     sv_user.obj
 0002:0000a204       ??_C@_0BB@JDELHNPO@setinfo?5name?5?$CFs?6@ 0046f204     sv_user.obj
 0002:0000a218       ??_C@_0CB@HEHALAJB@?$CFs?5was?5kicked?5for?5topcolor?5spam@ 0046f218     sv_user.obj
 0002:0000a23c       ??_C@_0DF@DIMNINH@You?5were?5kicked?5from?5the?5game?5f@ 0046f23c     sv_user.obj
 0002:0000a274       ??_C@_0O@LKFIBBNA@topcolor?5spam@ 0046f274     sv_user.obj
 0002:0000a284       ??_C@_0BO@HNANPNAG@?$CFs?5refused?5remote?5screenshot?6@ 0046f284     sv_user.obj
 0002:0000a2a4       ??_C@_0DP@JNEFAGMI@Can?8t?5change?5sv_minping?3?5demo?5r@ 0046f2a4     sv_user.obj
 0002:0000a2e4       ??_C@_0DG@GLHAEBKK@Can?8t?5change?5sv_minping?3?5sv_ena@ 0046f2e4     sv_user.obj
 0002:0000a31c       ??_C@_0CA@OBKPEENB@Value?5must?5be?5?$DO?$DN?50?5and?5?$DM?$DN?5300?4?6@ 0046f31c     sv_user.obj
 0002:0000a33c       ??_C@_0BB@DEIJBLIM@sv_minping?5?$DN?5?$CFs?6@ 0046f33c     sv_user.obj
 0002:0000a350       ??_C@_0EF@BHDGDNDL@usage?3?5minping?5?$FL?$DMvalue?$DO?$FN?6?$DMvalue@ 0046f350     sv_user.obj
 0002:0000a398       ??_C@_0CE@NMEJPNKB@Spectators?5can?8t?5change?5pm_airs@ 0046f398     sv_user.obj
 0002:0000a3c0       ??_C@_0GA@BMDKMDBM@Can?8t?5change?5pm_airstep?3?5demo?5r@ 0046f3c0     sv_user.obj
 0002:0000a420       ??_C@_0BH@BNIIDFLO@Value?5must?5be?50?5or?51?4?6@ 0046f420     sv_user.obj
 0002:0000a438       ??_C@_02LIELOMNJ@on@       0046f438     sv_user.obj
 0002:0000a43c       ??_C@_0BA@NBLNFPFC@?$CFs?5turns?5?$CFs?5?$CFs?6@ 0046f43c     sv_user.obj
 0002:0000a44c       ??_C@_0BB@EHJBKOMN@pm_airstep?5?$DN?5?$CFs?6@ 0046f44c     sv_user.obj
 0002:0000a460       ??_C@_0BI@KPMMMJKG@usage?3?5airstep?5?$FL0?5?$HM?51?$FN?6@ 0046f460     sv_user.obj
 0002:0000a478       ??_C@_06JMBKHEAI@ztndm3@   0046f478     sv_user.obj
 0002:0000a480       ??_C@_0BE@HNDIGLGK@list?5of?5custom?5maps@ 0046f480     sv_user.obj
 0002:0000a494       ??_C@_0M@ININDPNP@end?5of?5list@ 0046f494     sv_user.obj
 0002:0000a4a0       ??_C@_0DO@IGLFLNJL@Vote?5for?5maps?5by?5typing?5the?5map@ 0046f4a0     sv_user.obj
 0002:0000a4e0       ??_C@_08OEPCHOEA@?$CFs?9?9?9?$CFs?6@ 0046f4e0     sv_user.obj
 0002:0000a4ec       ??_C@_0CN@KKHAEGMD@Your?5QW?5client?5doesn?8t?5support?5@ 0046f4ec     sv_user.obj
 0002:0000a51c       ??_C@_06BALNJMNP@player@   0046f51c     sv_user.obj
 0002:0000a528       ??_C@_0FO@KDAOMPGG@This?5server?5requires?5a?5?$CFs?5passw@ 0046f528     sv_user.obj
 0002:0000a588       ??_C@_0BB@LMEINAPA@Wait?5?$CFd?5seconds?6@ 0046f588     sv_user.obj
 0002:0000a59c       ??_C@_0CD@KIEGBAPN@Can?8t?5join?0?5all?5player?5slots?5fu@ 0046f59c     sv_user.obj
 0002:0000a5c0       ??_C@_0CK@EHOBPKHM@Can?8t?5join?0?5all?5spectator?1vip?5s@ 0046f5c0     sv_user.obj
 0002:0000a5ec       ??_C@_08HBJNNHFA@nonmuted@ 0046f5ec     sv_user.obj
 0002:0000a5f8       ??_C@_0CL@CCNECHDL@PEXT?3?5Client?5supports?50x?$CFx?5fte?5@ 0046f5f8     sv_user.obj
 0002:0000a624       ??_C@_0CM@GBLOGBKB@PEXT?3?5Client?5supports?50x?$CFx?5fte?5@ 0046f624     sv_user.obj
 0002:0000a650       ??_C@_0CN@NPLOJAJF@PEXT?3?5Client?5supports?50x?$CFx?5mvds@ 0046f650     sv_user.obj
 0002:0000a680       ??_C@_0CA@JDMCHGMG@Cannot?5login?5during?5connection?6@ 0046f680     sv_user.obj
 0002:0000a6a0       ??_C@_0BJ@BKOHACGI@Usage?3?5login?5?$DMusername?$DO?6@ 0046f6a0     sv_user.obj
 0002:0000a6bc       ??_C@_0CD@HDENIINM@You?5are?5already?5logged?5in?5as?5?8?$CF@ 0046f6bc     sv_user.obj
 0002:0000a6e0       ??_C@_0CG@BBIILOBL@Usage?3?5challenge?9response?5?$DMresp@ 0046f6e0     sv_user.obj
 0002:0000a708       ??_C@_0P@FNJJEKFO@?$CFs?5logged?5out?6@ 0046f708     sv_user.obj
 0002:0000a718       ??_C@_03CLCAEGCJ@new@      0046f718     sv_user.obj
 0002:0000a71c       ??_C@_09EOKHBMCA@modellist@ 0046f71c     sv_user.obj
 0002:0000a728       ??_C@_09CJIFEKFJ@soundlist@ 0046f728     sv_user.obj
 0002:0000a734       ??_C@_08IDJAOKBB@prespawn@ 0046f734     sv_user.obj
 0002:0000a740       ??_C@_05BDADGJGG@spawn@    0046f740     sv_user.obj
 0002:0000a748       ??_C@_05EAFKHBAM@begin@    0046f748     sv_user.obj
 0002:0000a750       ??_C@_04PIONEEJD@drop@     0046f750     sv_user.obj
 0002:0000a758       ??_C@_05EDEODBAB@pings@    0046f758     sv_user.obj
 0002:0000a760       ??_C@_04BJJEOANI@kill@     0046f760     sv_user.obj
 0002:0000a768       ??_C@_05PDJBBECF@pause@    0046f768     sv_user.obj
 0002:0000a770       ??_C@_07BANLMPIG@setinfo@  0046f770     sv_user.obj
 0002:0000a778       ??_C@_06EKEKFCEC@nextdl@   0046f778     sv_user.obj
 0002:0000a780       ??_C@_02IGCIGBLK@dl@       0046f780     sv_user.obj
 0002:0000a784       ??_C@_06NCFIFLKB@ptrack@   0046f784     sv_user.obj
 0002:0000a78c       ??_C@_09GNMDIFNL@techlogin@ 0046f78c     sv_user.obj
 0002:0000a798       ??_C@_0N@IBOKGEEH@stopdownload@ 0046f798     sv_user.obj
 0002:0000a7a8       ??_C@_06NJGLKCLH@stopdl@   0046f7a8     sv_user.obj
 0002:0000a7b0       ??_C@_08HCFFFAHK@demoinfo@ 0046f7b0     sv_user.obj
 0002:0000a7bc       ??_C@_07CKOKLBOM@minping@  0046f7bc     sv_user.obj
 0002:0000a7c4       ??_C@_07OFFEPIKG@airstep@  0046f7c4     sv_user.obj
 0002:0000a7cc       ??_C@_04ILAGGJBN@maps@     0046f7cc     sv_user.obj
 0002:0000a7d4       ??_C@_05BMJDKHJJ@banip@    0046f7d4     sv_user.obj
 0002:0000a7dc       ??_C@_06MEGJBMKI@banrem@   0046f7dc     sv_user.obj
 0002:0000a7e4       ??_C@_04DFGCDGNN@join@     0046f7e4     sv_user.obj
 0002:0000a7ec       ??_C@_07NKJLKLAI@observe@  0046f7ec     sv_user.obj
 0002:0000a7f4       ??_C@_03HPMGHIMH@fly@      0046f7f4     sv_user.obj
 0002:0000a7f8       ??_C@_09LLDKMIBF@voicetarg@ 0046f7f8     sv_user.obj
 0002:0000a804       ??_C@_07PBIFIDPA@vignore@  0046f804     sv_user.obj
 0002:0000a80c       ??_C@_07KFBNFLBD@muteall@  0046f80c     sv_user.obj
 0002:0000a814       ??_C@_09KHHEPIOG@unmuteall@ 0046f814     sv_user.obj
 0002:0000a820       ??_C@_04NNEGGKAG@pext@     0046f820     sv_user.obj
 0002:0000a828       ??_C@_0P@JFIODPLN@login?9response@ 0046f828     sv_user.obj
 0002:0000a838       ??_C@_06IGBJOBNO@logout@   0046f838     sv_user.obj
 0002:0000a840       ??_C@_0BG@MKPODFFN@Bad?5user?5command?3?5?$CFs?6@ 0046f840     sv_user.obj
 0002:0000a858       ??_C@_0DD@JBAOLFKF@AddLinksToPmove?3?5check?9?$DOv?4model@ 0046f858     sv_user.obj
 0002:0000a88c       ??_C@_0BP@FOIIMCFC@SOLID_BSP?5with?5a?5non?9bsp?5model@ 0046f88c     sv_user.obj
 0002:0000a8ac       ??_C@_03FNIGJHAM@dev@      0046f8ac     sv_user.obj
 0002:0000a8b0       ??_C@_0BL@HLGLJHO@Best?3?5?$CFd?0?5forgetting?5rest?6@ 0046f8b0     sv_user.obj
 0002:0000a8cc       ??_C@_0BF@CHMIALHA@Hiding?5on?5death?3?5?$CFd?6@ 0046f8cc     sv_user.obj
 0002:0000a8e4       ??_C@_0BO@FCIMBLEE@Switching?5to?5best?5weapon?3?5?$CFd?6@ 0046f8e4     sv_user.obj
 0002:0000a904       ??_C@_0M@HMJNNMIB@Hiding?3?5?$CFd?6@ 0046f904     sv_user.obj
 0002:0000a910       ??_C@_0BE@KMDAMPN@Non?9wp?5impulse?3?5?$CFf?6@ 0046f910     sv_user.obj
 0002:0000a924       ??_C@_0BB@KACNJBGM@Hide?5successful?6@ 0046f924     sv_user.obj
 0002:0000a938       ??_C@_05JMNCBEKK@wrank@    0046f938     sv_user.obj
 0002:0000a940       ??_C@_0BH@EHFMCCDD@Setting?5new?5wrank?3?5?$CFs?6@ 0046f940     sv_user.obj
 0002:0000a958       ??_C@_0BP@IFPBKEFM@SV_ReadClientMessage?3?5badread?6@ 0046f958     sv_user.obj
 0002:0000a978       ??_C@_0CM@NKCPPNHG@SV_ReadClientMessage?3?5unknown?5c@ 0046f978     sv_user.obj
 0002:0000a9a4       ??_C@_0CP@KLJJDFGP@Failed?5command?5checksum?5for?5?$CFs?$CI@ 0046f9a4     sv_user.obj
 0002:0000a9d4       ??_C@_0CA@EKFLOIDA@SOLID_BSP?5without?5MOVETYPE_PUSH@ 0046f9d4     world.obj
 0002:0000a9f4       ??_C@_0CP@DCBHPPFF@SV_HullForEntity?3?5ent?4modelinde@ 0046f9f4     world.obj
 0002:0000aa24       ??_C@_0BJ@LFFIDGKK@Trigger?5in?5clipping?5list@ 0046fa24     world.obj
 0002:0000aa40       ??_C@_0BO@GIDJPPDJ@Trigger?5?$CI?$CFs?$CJ?5in?5clipping?5list@ 0046fa40     world.obj
 0002:0000aa60       ??_C@_0CA@LCAHLGFJ@?5?5?5?5?5?5?5?5?5?5?3?$CF8i?5total?5hunk?5size?6@ 0046fa60     zone.obj
 0002:0000aa80       ??_C@_0BL@EGNBEPHB@?9?9?9?9?9?9?9?9?9?9?9?9?9?9?9?9?9?9?9?9?9?9?9?9?9?6@ 0046fa80     zone.obj
 0002:0000aa9c       ??_C@_0BK@KDFIMLPH@?5?5?5?5?5?5?5?5?5?5?3?$CF8i?5REMAINING?6@ 0046fa9c     zone.obj
 0002:0000aab8       ??_C@_0BN@CHFAFBGE@Hunk_Print?3?5trashed?5sentinel@ 0046fab8     zone.obj
 0002:0000aad8       ??_C@_0BF@FPCAJGDE@Hunk_Print?3?5bad?5size@ 0046fad8     zone.obj
 0002:0000aaf0       ??_C@_0O@PANEHPIA@?$CF8p?5?3?$CF8i?5?$CF8s?6@ 0046faf0     zone.obj
 0002:0000ab00       ??_C@_0BM@PFKCPBOP@?5?5?5?5?5?5?5?5?5?5?3?$CF8i?5?$CF8s?5?$CITOTAL?$CJ?6@ 0046fb00     zone.obj
 0002:0000ab1c       ??_C@_0BC@OKOGJGE@?$CF8i?5total?5blocks?6@ 0046fb1c     zone.obj
 0002:0000ab30       ??_C@_0BN@HOPBFKHH@Hunk_AllocName?3?5bad?5size?3?5?$CFi@ 0046fb30     zone.obj
 0002:0000ab50       ??_C@_0GG@BOIEABAN@Hunk_AllocName?3?5Not?5enough?5RAM?5@ 0046fb50     zone.obj
 0002:0000abb8       ??_C@_0DE@BIPAJFFG@Hunk_FreeToLowMark?3?5bad?5mark?5?$CFi@ 0046fbb8     zone.obj
 0002:0000abec       ??_C@_0CB@KDLNFEMK@Hunk_FreeToHighMark?3?5bad?5mark?5?$CF@ 0046fbec     zone.obj
 0002:0000ac10       ??_C@_0CB@GEJLOLHO@Hunk_HighAllocName?3?5bad?5size?3?5?$CF@ 0046fc10     zone.obj
 0002:0000ac38       ??_C@_0GK@EDCFKINF@Hunk_HighAllocName?3?5Not?5enough?5@ 0046fc38     zone.obj
 0002:0000aca4       ??_C@_04FGEHGIFJ@temp@     0046fca4     zone.obj
 0002:0000acac       ??_C@_0BL@DHAFJOPO@Cache_UnlinkLRU?3?5NULL?5link@ 0046fcac     zone.obj
 0002:0000acc8       ??_C@_0BL@HEEHKLIN@Cache_MakeLRU?3?5active?5link@ 0046fcc8     zone.obj
 0002:0000ace4       ??_C@_0P@KIJELNGE@?$CF5?41f?5kB?5?3?5?$CFs?6@ 0046fce4     zone.obj
 0002:0000acf4       ??_C@_0CJ@NFHLNNCF@?$CF4?41f?5of?5?$CF4?41f?5megabyte?5data?5ca@ 0046fcf4     zone.obj
 0002:0000ad20       ??_C@_05GLCAEPFP@flush@    0046fd20     zone.obj
 0002:0000ad28       ??_C@_0M@BNEFDJOB@cache_print@ 0046fd28     zone.obj
 0002:0000ad34       ??_C@_0N@MEMOOGAL@cache_report@ 0046fd34     zone.obj
 0002:0000ad44       ??_C@_0L@GFLGFEAI@hunk_print@ 0046fd44     zone.obj
 0002:0000ad50       ??_C@_0BK@DBFGGNPB@Cache_Free?3?5not?5allocated@ 0046fd50     zone.obj
 0002:0000ad6c       ??_C@_05IAEKHIAN@alpha@    0046fd6c     pcre.obj
 0002:0000ad74       ??_C@_05IPJEPLHL@lower@    0046fd74     pcre.obj
 0002:0000ad7c       ??_C@_05NECKJAMC@upper@    0046fd7c     pcre.obj
 0002:0000ad84       ??_C@_05IIMHCHIO@alnum@    0046fd84     pcre.obj
 0002:0000ad8c       ??_C@_05OJENGABA@ascii@    0046fd8c     pcre.obj
 0002:0000ad94       ??_C@_05BABJKOGB@blank@    0046fd94     pcre.obj
 0002:0000ad9c       ??_C@_05JMDPEFNK@cntrl@    0046fd9c     pcre.obj
 0002:0000ada4       ??_C@_05ODNOIFML@digit@    0046fda4     pcre.obj
 0002:0000adac       ??_C@_05KCJBMLII@graph@    0046fdac     pcre.obj
 0002:0000adb4       ??_C@_05IJDJACGD@print@    0046fdb4     pcre.obj
 0002:0000adbc       ??_C@_05KOBGHFJJ@punct@    0046fdbc     pcre.obj
 0002:0000adc4       ??_C@_05OLNILLAB@space@    0046fdc4     pcre.obj
 0002:0000adcc       ??_C@_04EHIOMBPF@word@     0046fdcc     pcre.obj
 0002:0000add4       ??_C@_06BAPHGFFK@xdigit@   0046fdd4     pcre.obj
 0002:0000addc       ??_C@_0BE@BIJPDEGK@?2?5at?5end?5of?5pattern@ 0046fddc     pcre.obj
 0002:0000adf0       ??_C@_0CM@IAOBPFEP@PCRE?5does?5not?5support?5?2L?0?5?2l?0?5?2@ 0046fdf0     pcre.obj
 0002:0000ae1c       ??_C@_0BF@FIOFLDLD@?2c?5at?5end?5of?5pattern@ 0046fe1c     pcre.obj
 0002:0000ae34       ??_C@_0CB@OCNPHLON@unrecognized?5character?5follows?5@ 0046fe34     pcre.obj
 0002:0000ae58       ??_C@_0CG@GLALLEMH@numbers?5out?5of?5order?5in?5?$HL?$HN?5quan@ 0046fe58     pcre.obj
 0002:0000ae80       ??_C@_0CA@OEAENGBN@number?5too?5big?5in?5?$HL?$HN?5quantifier@ 0046fe80     pcre.obj
 0002:0000aea0       ??_C@_0DG@OMEJDLJD@POSIX?5named?5classes?5are?5support@ 0046fea0     pcre.obj
 0002:0000aed8       ??_C@_0CL@NDODPGFN@POSIX?5collating?5elements?5are?5no@ 0046fed8     pcre.obj
 0002:0000af04       ??_C@_0BJ@GHBOKNLB@unknown?5POSIX?5class?5name@ 0046ff04     pcre.obj
 0002:0000af20       ??_C@_0CL@ICNCANL@invalid?5escape?5sequence?5in?5char@ 0046ff20     pcre.obj
 0002:0000af4c       ??_C@_0BC@IOBPIKM@nothing?5to?5repeat@ 0046ff4c     pcre.obj
 0002:0000af60       ??_C@_0CC@LMODKJON@internal?5error?3?5unexpected?5repe@ 0046ff60     pcre.obj
 0002:0000af84       ??_C@_0BI@MOLLPMEK@invalid?5condition?5?$CI?$DP?$CI0?$CJ@ 0046ff84     pcre.obj
 0002:0000af9c       ??_C@_0BK@HOKNKLFH@number?5after?5?$CI?$DPC?5is?5?$DO?5255@ 0046ff9c     pcre.obj
 0002:0000afb8       ??_C@_0CE@OHEDBGCJ@two?5named?5groups?5have?5the?5same?5@ 0046ffb8     pcre.obj
 0002:0000afdc       ??_C@_0CF@LLDBIFKH@reference?5to?5non?9existent?5subpa@ 0046ffdc     pcre.obj
 0002:0000b004       ??_C@_0CH@ONMFGMEF@recursive?5call?5could?5loop?5indef@ 00470004     pcre.obj
 0002:0000b02c       ??_C@_0DC@GEOOFAJD@conditional?5group?5contains?5more@ 0047002c     pcre.obj
 0002:0000b060       ??_C@_09OEPAPCHM@missing?5?$CJ@ 00470060     pcre.obj
 0002:0000b06c       ??_C@_0CH@KPALHCPA@?2C?5not?5allowed?5in?5lookbehind?5as@ 0047006c     pcre.obj
 0002:0000b094       ??_C@_0CJ@OOFPBMOK@lookbehind?5assertion?5is?5not?5fix@ 00470094     pcre.obj
 0002:0000b0c0       ??_C@_0BJ@GOONFFAE@erroffset?5passed?5as?5NULL@ 004700c0     pcre.obj
 0002:0000b0dc       ??_C@_0DM@DMMANFHL@this?5version?5of?5PCRE?5is?5not?5com@ 004700dc     pcre.obj
 0002:0000b118       ??_C@_0BK@NJIPCDKO@unknown?5option?5bit?$CIs?$CJ?5set@ 00470118     pcre.obj
 0002:0000b134       ??_C@_0DB@CFNOHHLN@support?5for?5?2P?0?5?2p?0?5and?5?2X?5has?5@ 00470134     pcre.obj
 0002:0000b168       ??_C@_0CG@DNDLHDCL@range?5out?5of?5order?5in?5character@ 00470168     pcre.obj
 0002:0000b190       ??_C@_0CK@MOMBEPNC@missing?5terminating?5?$FN?5for?5chara@ 00470190     pcre.obj
 0002:0000b1bc       ??_C@_0BI@NLAKJLPB@missing?5?$CJ?5after?5comment@ 004701bc     pcre.obj
 0002:0000b1d4       ??_C@_0CG@PGODGPGA@?$CI?$DPR?5or?5?$CI?$DPdigits?5must?5be?5followe@ 004701d4     pcre.obj
 0002:0000b1fc       ??_C@_0BL@ONFKCMMC@closing?5?$CJ?5for?5?$CI?$DPC?5expected@ 004701fc     pcre.obj
 0002:0000b218       ??_C@_0BH@NDNDENPI@syntax?5error?5after?5?$CI?$DPP@ 00470218     pcre.obj
 0002:0000b230       ??_C@_0CB@ENOJIPO@unrecognized?5character?5after?5?$CI?$DP@ 00470230     pcre.obj
 0002:0000b254       ??_C@_0CB@MNJGLMFF@unrecognized?5character?5after?5?$CI?$DP@ 00470254     pcre.obj
 0002:0000b278       ??_C@_0BL@ODNOOPKA@malformed?5number?5after?5?$CI?$DP?$CI@ 00470278     pcre.obj
 0002:0000b294       ??_C@_0BN@GHDJANOK@assertion?5expected?5after?5?$CI?$DP?$CI@ 00470294     pcre.obj
 0002:0000b2b4       ??_C@_0CA@GONFLKHC@unrecognized?5character?5after?5?$CI?$DP@ 004702b4     pcre.obj
 0002:0000b2d4       ??_C@_0BO@OJEGLFLD@parentheses?5nested?5too?5deeply@ 004702d4     pcre.obj
 0002:0000b2f4       ??_C@_0BN@JJAGFGMA@regular?5expression?5too?5large@ 004702f4     pcre.obj
 0002:0000b314       ??_C@_0BF@MNBKDEO@failed?5to?5get?5memory@ 00470314     pcre.obj
 0002:0000b32c       ??_C@_0BG@JHBAGBAB@unmatched?5parentheses@ 0047032c     pcre.obj
 0002:0000b344       ??_C@_0BO@MBAEMNKH@internal?5error?3?5code?5overflow@ 00470344     pcre.obj
 0002:0000b364       __real@00000000            00470364     sv_user.obj
 0002:0000b368       __real@0000000000000000    00470368     sv_sys_win.obj
 0002:0000b370       __real@35800000            00470370     zone.obj
 0002:0000b374       __real@3a800000            00470374     zone.obj
 0002:0000b378       __real@3c800000            00470378     sv_phys.obj
 0002:0000b37c       __real@3e000000            0047037c     common.obj
 0002:0000b380       __real@3f000000            00470380     mathlib.obj
 0002:0000b388       __real@3f10002000400080    00470388     pr_cmds.obj
 0002:0000b390       __real@3f3a36e2eb1c432d    00470390     net_chan.obj
 0002:0000b398       __real@3f50624dd2f1a9fc    00470398     sv_demo.obj
 0002:0000b3a0       __real@3f76800000000000    004703a0     mathlib.obj
 0002:0000b3a8       __real@3f800000            004703a8     world.obj
 0002:0000b3b0       __real@3f847ae147ae147b    004703b0     pmove.obj
 0002:0000b3b8       __real@3f847ae147ae1480    004703b8     net_chan.obj
 0002:0000b3c0       __real@3f91df46a2529d39    004703c0     mathlib.obj
 0002:0000b3c8       __real@3f947ae147ae147b    004703c8     sv_user.obj
 0002:0000b3d0       __real@3fa0000000000000    004703d0     cmodel.obj
 0002:0000b3d8       __real@3fa6c16c16c16c17    004703d8     sv_ents.obj
 0002:0000b3e0       __real@3fa999999999999a    004703e0     sv_user.obj
 0002:0000b3e8       __real@3fb999999999999a    004703e8     sv_phys.obj
 0002:0000b3f0       __real@3fc00000            004703f0     mathlib.obj
 0002:0000b3f8       __real@3fc0000000000000    004703f8     pmove.obj
 0002:0000b400       __real@3fe0000000000000    00470400     pr_cmds.obj
 0002:0000b408       __real@3fe6666666666666    00470408     pmove.obj
 0002:0000b410       __real@3fe6c16c16c16c17    00470410     sv_ents.obj
 0002:0000b418       __real@3fefae147ae147ae    00470418     net_chan.obj
 0002:0000b420       __real@3ff0000000000000    00470420     pr_cmds.obj
 0002:0000b428       __real@3ff8000000000000    00470428     pmove.obj
 0002:0000b430       __real@40000000            00470430     sv_user.obj
 0002:0000b438       __real@4008000000000000    00470438     sv_user.obj
 0002:0000b440       __real@400921fb54442d18    00470440     pr_cmds.obj
 0002:0000b448       __real@4010000000000000    00470448     pmove.obj
 0002:0000b450       __real@4014000000000000    00470450     net_chan.obj
 0002:0000b458       __real@4020000000000000    00470458     sv_user.obj
 0002:0000b460       __real@4024000000000000    00470460     bothtools.obj
 0002:0000b468       __real@4030000000000000    00470468     bothtools.obj
 0002:0000b470       __real@4034000000000000    00470470     sv_send.obj
 0002:0000b478       __real@40400000            00470478     world.obj
 0002:0000b480       __real@4048000000000000    00470480     bothtools.obj
 0002:0000b488       __real@404e000000000000    00470488     sv_ccmds.obj
 0002:0000b490       __real@4053400000000000    00470490     sv_phys.obj
 0002:0000b498       __real@4058400000000000    00470498     bothtools.obj
 0002:0000b4a0       __real@4059000000000000    004704a0     sv_ccmds.obj
 0002:0000b4a8       __real@4066800000000000    004704a8     pr_cmds.obj
 0002:0000b4b0       __real@4066c16c16c16c17    004704b0     mathlib.obj
 0002:0000b4b8       __real@4070000000000000    004704b8     common.obj
 0002:0000b4c0       __real@4072c00000000000    004704c0     sv_master.obj
 0002:0000b4c8       __real@4076800000000000    004704c8     common.obj
 0002:0000b4d0       __real@4079000000000000    004704d0     net_chan.obj
 0002:0000b4d8       __real@40800000            004704d8     world.obj
 0002:0000b4e0       __real@4082c00000000000    004704e0     sv_main.obj
 0002:0000b4e8       __real@408f400000000000    004704e8     sv_sys_win.obj
 0002:0000b4f0       __real@4092c00000000000    004704f0     sv_ccmds.obj
 0002:0000b4f8       __real@40a00000            004704f8     sv_user.obj
 0002:0000b500       __real@40ac200000000000    00470500     sv_main.obj
 0002:0000b508       __real@40e00000            00470508     world.obj
 0002:0000b510       __real@40f0000000000000    00470510     common.obj
 0002:0000b518       __real@40f5180000000000    00470518     sv_main.obj
 0002:0000b520       __real@40f86a0000000000    00470520     pr2_cmds.obj
 0002:0000b528       __real@41000000            00470528     sv_user.obj
 0002:0000b52c       __real@41100000            0047052c     sv_phys.obj
 0002:0000b530       __real@41200000            00470530     sv_phys.obj
 0002:0000b534       __real@41700000            00470534     sv_user.obj
 0002:0000b538       __real@41800000            00470538     cmodel.obj
 0002:0000b53c       __real@41900000            0047053c     cmodel.obj
 0002:0000b540       __real@41b00000            00470540     pmove.obj
 0002:0000b544       __real@41c00000            00470544     pmove.obj
 0002:0000b548       __real@41dfffffffc00000    00470548     sv_sys_win.obj
 0002:0000b550       __real@41f00000            00470550     pmove.obj
 0002:0000b554       __real@42000000            00470554     world.obj
 0002:0000b558       __real@42080000            00470558     pmove.obj
 0002:0000b55c       __real@42100000            0047055c     sv_move.obj
 0002:0000b560       __real@42200000            00470560     sv_move.obj
 0002:0000b564       __real@42340000            00470564     sv_move.obj
 0002:0000b568       __real@42480000            00470568     pmove.obj
 0002:0000b56c       __real@42700000            0047056c     central.obj
 0002:0000b570       __real@42800000            00470570     cmodel.obj
 0002:0000b574       __real@42920000            00470574     pr_cmds.obj
 0002:0000b578       __real@42a00000            00470578     pmove.obj
 0002:0000b57c       __real@42b3cccd            0047057c     sv_user.obj
 0002:0000b580       __real@42b40000            00470580     pr_cmds.obj
 0002:0000b584       __real@42c80000            00470584     pmove.obj
 0002:0000b588       __real@43340000            00470588     bothtools.obj
 0002:0000b58c       __real@43610000            0047058c     pr_cmds.obj
 0002:0000b590       __real@437f0000            00470590     pr_cmds.obj
 0002:0000b594       __real@43800000            00470594     sv_user.obj
 0002:0000b598       __real@43870000            00470598     pr_cmds.obj
 0002:0000b59c       __real@43960000            0047059c     sv_user.obj
 0002:0000b5a0       __real@439b0000            004705a0     pmove.obj
 0002:0000b5a4       __real@439d8000            004705a4     sv_move.obj
 0002:0000b5a8       __real@43b40000            004705a8     pr_cmds.obj
 0002:0000b5ac       __real@447a0000            004705ac     sv_main.obj
 0002:0000b5b0       __real@44800000            004705b0     sv_send.obj
 0002:0000b5b4       __real@45800000            004705b4     sv_ents.obj
 0002:0000b5b8       __real@46fffe00            004705b8     pr_cmds.obj
 0002:0000b5bc       __real@bf800000            004705bc     mathlib.obj
 0002:0000b5c0       __real@bfb999999999999a    004705c0     sv_phys.obj
 0002:0000b5c8       __real@bff0000000000000    004705c8     pr2_cmds.obj
 0002:0000b5d0       __real@c0400000            004705d0     sv_ents.obj
 0002:0000b5d8       __real@c058c00000000000    004705d8     sv_user.obj
 0002:0000b5e0       __real@c0f869f000000000    004705e0     sv_master.obj
 0002:0000b5e8       __real@c1000000            004705e8     cmodel.obj
 0002:0000b5ec       __real@c1200000            004705ec     sv_move.obj
 0002:0000b5f0       __real@c1700000            004705f0     world.obj
 0002:0000b5f4       __real@c1800000            004705f4     cmodel.obj
 0002:0000b5f8       __real@c1c00000            004705f8     sv_ents.obj
 0002:0000b5fc       __real@c28c0000            004705fc     sv_user.obj
 0002:0000b600       __real@c2b3cccd            00470600     sv_user.obj
 0002:0000b604       __real@c3340000            00470604     bothtools.obj
 0002:0000b608       __real@c3870000            00470608     sv_user.obj
 0002:0000b60c       __real@c3960000            0047060c     pmove.obj
 0002:0000b610       __xmm@00000003000000020000000100000000 00470610     pr_edict.obj
 0002:0000b620       __xmm@20202020202020202020202020202020 00470620     sv_save.obj
 0002:0000b630       __xmm@41f00000000000000000000000000000 00470630     sv_sys_win.obj
 0002:0000b640       __xmm@7fffffffffffffff7fffffffffffffff 00470640     pr_cmds.obj
 0002:0000b650       __xmm@80000000000000008000000000000000 00470650     sv_main.obj
 0002:0000b660       __xmm@80000000800000008000000080000000 00470660     mathlib.obj
 0002:0000b670       __xmm@bf800000bf800000bf800000bf800000 00470670     sv_ents.obj
 0002:0000b680       __xmm@ffffffffffffffffffffffffffffffff 00470680     sv_ents.obj
 0002:0000b790       __load_config_used         00470790     MSVCRTD:loadcfg.obj
 0002:0000bac0       ___rtc_iaa                 00470ac0     MSVCRTD:initsect.obj
 0002:0000bac4       ___rtc_izz                 00470ac4     MSVCRTD:initsect.obj
 0002:0000bac8       ___rtc_taa                 00470ac8     MSVCRTD:initsect.obj
 0002:0000bacc       ___rtc_tzz                 00470acc     MSVCRTD:initsect.obj
 0002:0000bb0c       __IMPORT_DESCRIPTOR_WSOCK32 00470b0c     wsock32:WSOCK32.dll
 0002:0000bb20       __IMPORT_DESCRIPTOR_WINMM  00470b20     winmm:WINMM.dll
 0002:0000bb34       __IMPORT_DESCRIPTOR_KERNEL32 00470b34     kernel32:KERNEL32.dll
 0002:0000bb48       __IMPORT_DESCRIPTOR_libcurl 00470b48     libcurl:libcurl.dll
 0002:0000bb5c       __IMPORT_DESCRIPTOR_VCRUNTIME140D 00470b5c     vcruntimed:VCRUNTIME140D.dll
 0002:0000bb70       __IMPORT_DESCRIPTOR_ucrtbased 00470b70     ucrtd:ucrtbased.dll
 0002:0000bb84       __NULL_IMPORT_DESCRIPTOR   00470b84     wsock32:WSOCK32.dll
 0003:00000000       ___security_cookie_complement 00472000     MSVCRTD:gs_cookie.obj
 0003:00000004       ___security_cookie         00472004     MSVCRTD:gs_cookie.obj
 0003:00000008       ___scrt_native_dllmain_reason 00472008     MSVCRTD:utility.obj
 0003:0000000c       ___scrt_default_matherr    0047200c     MSVCRTD:matherr.obj
 0003:00000010       ___isa_enabled             00472010     MSVCRTD:cpu_disp.obj
 0003:00000014       ___scrt_ucrt_dll_is_in_use 00472014     MSVCRTD:ucrt_stubs.obj
 0003:00000020       _msg_anglesize             00472020     common.obj
 0003:00000024       _msg_coordsize             00472024     common.obj
 0003:00000028       _fs_cache                  00472028     fs.obj
 0003:00000044       _filesystemchanged         00472044     fs.obj
 0003:00000048       _osfilefuncs               00472048     vfs_os.obj
 0003:0000006c       _pr_string_temp            0047206c     pr_cmds.obj
 0003:00000070       _packfilefuncs             00472070     vfs_pak.obj
 0003:00000094       _sv_local_addr             00472094     net.obj
 0003:000000b0       _showpackets               004720b0     net_chan.obj
 0003:000000cc       _showdrop                  004720cc     net_chan.obj
 0003:000000e8       _sv_pr2references          004720e8     pr2_exec.obj
 0003:00000104       _sv_progtype               00472104     pr2_exec.obj
 0003:00000120       _sv_enableprofile          00472120     pr2_vm.obj
 0003:0000013c       _sv_progsname              0047213c     pr_edict.obj
 0003:00000158       _sv_forcenqprogs           00472158     pr_edict.obj
 0003:00000174       _fp_messages               00472174     sv_ccmds.obj
 0003:00000178       _fp_persecond              00472178     sv_ccmds.obj
 0003:0000017c       _fp_secondsdead            0047217c     sv_ccmds.obj
 0003:00000180       _logs                      00472180     sv_ccmds.obj
 0003:00000244       _sv_cheats                 00472244     sv_ccmds.obj
 0003:00000260       _sv_demoDir                00472260     sv_demo.obj
 0003:0000027c       _sv_demoDirAlt             0047227c     sv_demo.obj
 0003:00000298       _sv_demoClearOld           00472298     sv_demo.obj
 0003:000002b4       _sv_demoMaxDirSize         004722b4     sv_demo.obj
 0003:000002d0       _sv_demoCacheSize          004722d0     sv_demo.obj
 0003:000002ec       _sv_demoSuffix             004722ec     sv_demo.obj
 0003:00000308       _extralogname              00472308     sv_demo.obj
 0003:00000324       _sv_demoPings              00472324     sv_demo.obj
 0003:00000340       _sv_demoMaxSize            00472340     sv_demo.obj
 0003:0000035c       _sv_silentrecord           0047235c     sv_demo.obj
 0003:00000378       _sv_demoIdlefps            00472378     sv_demo.obj
 0003:00000394       _sv_ondemoremove           00472394     sv_demo.obj
 0003:000003b0       _sv_demoUseCache           004723b0     sv_demo.obj
 0003:000003cc       _sv_demoRegexp             004723cc     sv_demo.obj
 0003:000003e8       _sv_demotxt                004723e8     sv_demo.obj
 0003:00000404       _sv_demofps                00472404     sv_demo.obj
 0003:00000420       _sv_onrecordfinish         00472420     sv_demo.obj
 0003:0000043c       _sv_demoPrefix             0047243c     sv_demo.obj
 0003:00000458       _sv_demoExtraNames         00472458     sv_demo.obj
 0003:00000474       _qtv_streamtimeout         00472474     sv_demo_qtv.obj
 0003:00000490       _sv_nailhack               00472490     sv_ents.obj
 0003:000004ac       _sv_login_web              004724ac     sv_login.obj
 0003:000004c8       _sv_login                  004724c8     sv_login.obj
 0003:000004e4       _sv_halflifebsp            004724e4     sv_main.obj
 0003:00000500       _sv_bspversion             00472500     sv_main.obj
 0003:0000051c       _developer                 0047251c     sv_main.obj
 0003:00000538       _maxspectators             00472538     sv_main.obj
 0003:00000554       _frag_log_type             00472554     sv_main.obj
 0003:00000570       _maxclients                00472570     sv_main.obj
 0003:0000058c       _sv_specprint              0047258c     sv_main.obj
 0003:000005a8       _deathmatch                004725a8     sv_main.obj
 0003:000005c4       _sv_logdir                 004725c4     sv_main.obj
 0003:000005e0       _sv_use_dns                004725e0     sv_main.obj
 0003:000005fc       _teamplay                  004725fc     sv_main.obj
 0003:00000618       _serverdemo                00472618     sv_main.obj
 0003:00000634       _timelimit                 00472634     sv_main.obj
 0003:00000650       _sv_serveme_fix            00472650     sv_main.obj
 0003:0000066c       _sv_loadentfiles_dir       0047266c     sv_main.obj
 0003:00000688       _sv_loadentfiles           00472688     sv_main.obj
 0003:000006a4       _sv_bigcoords              004726a4     sv_main.obj
 0003:000006c0       _sv_extlimits              004726c0     sv_main.obj
 0003:000006dc       _coop                      004726dc     sv_main.obj
 0003:000006f8       _sv_paused                 004726f8     sv_main.obj
 0003:00000714       _skill                     00472714     sv_main.obj
 0003:00000730       _sv_registrationinfo       00472730     sv_main.obj
 0003:0000074c       _sv_forcenick              0047274c     sv_main.obj
 0003:00000768       _sv_hashpasswords          00472768     sv_main.obj
 0003:00000784       _allow_download_other      00472784     sv_main.obj
 0003:000007a0       _pausable                  004727a0     sv_main.obj
 0003:000007bc       _sv_reconnectlimit         004727bc     sv_main.obj
 0003:000007d8       _timeout                   004727d8     sv_main.obj
 0003:000007f4       _sv_speedcheck             004727f4     sv_main.obj
 0003:00000810       _sv_getrealip              00472810     sv_main.obj
 0003:0000082c       _registered                0047282c     sv_main.obj
 0003:00000848       _sv_maxrate                00472848     sv_main.obj
 0003:00000864       _hostname                  00472864     sv_main.obj
 0003:00000880       _zombietime                00472880     sv_main.obj
 0003:0000089c       _sys_select_timeout        0047289c     sv_main.obj
 0003:000008b8       _filterban                 004728b8     sv_main.obj
 0003:000008d4       _sv_kicktop                004728d4     sv_main.obj
 0003:000008f0       _allow_download_maps       004728f0     sv_main.obj
 0003:0000090c       _sv_rconlim                0047290c     sv_main.obj
 0003:00000928       _sv_maxfps                 00472928     sv_main.obj
 0003:00000944       _sv_default_name           00472944     sv_main.obj
 0003:00000960       _watervis                  00472960     sv_main.obj
 0003:0000097c       _allow_download_models     0047297c     sv_main.obj
 0003:00000998       _sys_command_line          00472998     sv_main.obj
 0003:000009b4       _sv_crypt_rcon             004729b4     sv_main.obj
 0003:000009d0       _version                   004729d0     sv_main.obj
 0003:000009ec       _sv_unfake                 004729ec     sv_main.obj
 0003:00000a08       _password                  00472a08     sv_main.obj
 0003:00000a24       _qconsole_log_say          00472a24     sv_main.obj
 0003:00000a40       _sv_maxdownloadrate        00472a40     sv_main.obj
 0003:00000a5c       _sv_maxtic                 00472a5c     sv_main.obj
 0003:00000a78       _download_map_url          00472a78     sv_main.obj
 0003:00000a94       _fraglimit                 00472a94     sv_main.obj
 0003:00000ab0       _telnet_log_level          00472ab0     sv_main.obj
 0003:00000acc       _vip_password              00472acc     sv_main.obj
 0003:00000ae8       _sv_mintic                 00472ae8     sv_main.obj
 0003:00000b04       _sv_phs                    00472b04     sv_main.obj
 0003:00000b20       _sv_allowlastscores        00472b20     sv_main.obj
 0003:00000b3c       _sys_restart_on_error      00472b3c     sv_main.obj
 0003:00000b58       _sv_admininfo              00472b58     sv_main.obj
 0003:00000b74       _sv_forcespec_onfull       00472b74     sv_main.obj
 0003:00000b90       _allow_download_sounds     00472b90     sv_main.obj
 0003:00000bac       _vip_values                00472bac     sv_main.obj
 0003:00000bc8       _allow_download            00472bc8     sv_main.obj
 0003:00000be4       _allow_download_pakmaps    00472be4     sv_main.obj
 0003:00000c00       _sv_timestamplen           00472c00     sv_main.obj
 0003:00000c1c       _sv_maxlogsize             00472c1c     sv_main.obj
 0003:00000c38       _spectator_password        00472c38     sv_main.obj
 0003:00000c54       _sv_reliable_sound         00472c54     sv_main.obj
 0003:00000c70       _sv_mod_msg_file           00472c70     sv_main.obj
 0003:00000c8c       _maxvip_spectators         00472c8c     sv_main.obj
 0003:00000ca8       _sys_simulation            00472ca8     sv_main.obj
 0003:00000cc4       _allow_download_skins      00472cc4     sv_main.obj
 0003:00000ce0       _rcon_password             00472ce0     sv_main.obj
 0003:00000cfc       _sv_serverip               00472cfc     sv_main.obj
 0003:00000d18       _samelevel                 00472d18     sv_main.obj
 0003:00000d34       _allow_download_demos      00472d34     sv_main.obj
 0003:00000d50       _qwmsg_def                 00472d50     sv_mod_frags.obj
 0003:00001214       _sv_maxspeed               00473214     sv_phys.obj
 0003:00001230       _sv_antilag                00473230     sv_phys.obj
 0003:0000124c       _sv_wateraccelerate        0047324c     sv_phys.obj
 0003:00001268       _pm_ktjump                 00473268     sv_phys.obj
 0003:00001284       _pm_pground                00473284     sv_phys.obj
 0003:000012a0       _sv_airaccelerate          004732a0     sv_phys.obj
 0003:000012bc       _sv_maxvelocity            004732bc     sv_phys.obj
 0003:000012d8       _sv_spectatormaxspeed      004732d8     sv_phys.obj
 0003:000012f4       _sv_friction               004732f4     sv_phys.obj
 0003:00001310       _sv_gravity                00473310     sv_phys.obj
 0003:0000132c       _pm_airstep                0047332c     sv_phys.obj
 0003:00001348       _sv_accelerate             00473348     sv_phys.obj
 0003:00001364       _sv_waterfriction          00473364     sv_phys.obj
 0003:00001380       _sv_stopspeed              00473380     sv_phys.obj
 0003:0000139c       _sv_antilag_no_pred        0047339c     sv_phys.obj
 0003:000013b8       _sv_antilag_projectiles    004733b8     sv_phys.obj
 0003:000013d4       _pm_slidefix               004733d4     sv_phys.obj
 0003:000013f0       _pm_bunnyspeedcap          004733f0     sv_phys.obj
 0003:0000140c       _sys_nostdout              0047340c     sv_sys_win.obj
 0003:00001428       _sys_sleep                 00473428     sv_sys_win.obj
 0003:00001444       _sv_minping                00473444     sv_user.obj
 0003:00001460       _sv_mapcheck               00473460     sv_user.obj
 0003:0000147c       _sv_kickuserinfospamcount  0047347c     sv_user.obj
 0003:00001498       _sv_voip                   00473498     sv_user.obj
 0003:000014b4       _sv_downloadchunksperframe 004734b4     sv_user.obj
 0003:000014d0       _sv_kickuserinfospamtime   004734d0     sv_user.obj
 0003:000014ec       _sv_spectalk               004734ec     sv_user.obj
 0003:00001508       _sv_maxuploadsize          00473508     sv_user.obj
 0003:00001524       _sv_voip_echo              00473524     sv_user.obj
 0003:00001540       _sv_sayteam_to_spec        00473540     sv_user.obj
 0003:0000155c       _sv_maxping                0047355c     sv_user.obj
 0003:00001578       _sv_enable_cmd_minping     00473578     sv_user.obj
 0003:00001594       _sv_voip_record            00473594     sv_user.obj
 0003:000015b0       _sv_maxpitch               004735b0     sv_user.obj
 0003:000015cc       _sv_minpitch               004735cc     sv_user.obj
 0003:00002750       __fltused                  00474750     MSVCRTD:fltused.obj
 0003:00002a7c       ___scrt_current_native_startup_state 00474a7c     MSVCRTD:utility.obj
 0003:00002a80       ___scrt_native_startup_lock 00474a80     MSVCRTD:utility.obj
 0003:00002aa0       ?__type_info_root_node@@3U__type_info_node@@A 00474aa0     MSVCRTD:tncleanup.obj
 0003:00002aa8       ___scrt_debugger_hook_flag 00474aa8     MSVCRTD:utility_desktop.obj
 0003:00002aac       ___isa_available           00474aac     MSVCRTD:cpu_disp.obj
 0003:00002ab0       ___favor                   00474ab0     MSVCRTD:cpu_disp.obj
 0003:00002ac0       _cbuf_current              00474ac0     cmd.obj
 0003:00002ac4       _fs_hash_dups              00474ac4     fs.obj
 0003:00002ac8       _fs_hash_files             00474ac8     fs.obj
 0003:00002acc       _filesystemhash            00474acc     fs.obj
 0003:00002ad0       _vec3_origin               00474ad0     mathlib.obj
 0003:00002adc       _sv_vm                     00474adc     pr2_cmds.obj
 0003:00002ae0       _pr2_num_open_files        00474ae0     pr2_cmds.obj
 0003:00002ae4       _pr_numbuiltins            00474ae4     pr_cmds.obj
 0003:00002ae8       _pr_string_index           00474ae8     pr_cmds.obj
 0003:00002aec       _pr_builtins               00474aec     pr_cmds.obj
 0003:00002af0       _sv_allow_cheats           00474af0     sv_ccmds.obj
 0003:00002af4       _sv_error                  00474af4     sv_main.obj
 0003:00002af8       _fp_msg                    00474af8     sv_ccmds.obj
 0003:00002bf8       _master_rcon_password      00474bf8     sv_main.obj
 0003:00002c78       _WatcherId                 00474c78     sv_main.obj
 0003:00002c80       _pcre_callout              00474c80     pcre.obj
 0003:00120ddc       ___dyn_tls_dtor_callback   00592ddc     <common>
 0003:00120de0       ___dyn_tls_init_callback   00592de0     <common>
 0003:00120de4       _hunk_size                 00592de4     <common>
 0003:00120de8       _hunk_base                 00592de8     <common>
 0003:00120e00       _cache_head                00592e00     <common>
 0003:00120e28       _hunk_low_used             00592e28     <common>
 0003:00120e2c       _hunk_high_used            00592e2c     <common>
 0003:00120e30       _hunk_tempmark             00592e30     <common>
 0003:00120e34       _hunk_tempactive           00592e34     <common>
 0003:00120e38       _sv_numareanodes           00592e38     <common>
 0003:00120e40       _sv_areanodes              00592e40     <common>
 0003:00121340       _sv_player                 00593340     <common>
 0003:00121360       _cmd                       00593360     <common>
 0003:00121380       _voice                     00593380     <common>
 0003:001a3384       _sv_supernailmodel         00615384     <common>
 0003:001a3388       _sv_nailmodel              00615388     <common>
 0003:001a338c       _sv_playermodel            0061538c     <common>
 0003:001a3390       _sv_redirected             00615390     <common>
 0003:001a33a0       _outputbuf                 006153a0     <common>
 0003:001a52e0       _sv_frametime              006172e0     <common>
 0003:001a5300       _qwmsg                     00617300     <common>
 0003:001a5b20       _ipvip                     00617b20     <common>
 0003:001adb20       _numipfilters              0061fb20     <common>
 0003:001adb40       _ipfilters                 0061fb40     <common>
 0003:001b5b40       _numipvips                 00627b40     <common>
 0003:001b5b44       _host_everything_loaded    00627b44     <common>
 0003:001b5b60       _penfilters                00627b60     <common>
 0003:001b8b60       _numpenfilters             0062ab60     <common>
 0003:001b8b64       _current_skill             0062ab64     <common>
 0003:001b8b68       _realtime                  0062ab68     <common>
 0003:001b8b70       _sv_client                 0062ab70     <common>
 0003:001b8b74       _host_initialized          0062ab74     <common>
 0003:001b8b78       _curtime                   0062ab78     <common>
 0003:001b8b80       _fofs_items2               0062ab80     <common>
 0003:001b8b84       _fofs_teleported           0062ab84     <common>
 0003:001b8b88       _fofs_maxspeed             0062ab88     <common>
 0003:001b8b8c       _fofs_gravity              0062ab8c     <common>
 0003:001b8b90       _fofs_movement             0062ab90     <common>
 0003:001b8ba0       _localmodels               0062aba0     <common>
 0003:001b95a0       _fofs_hideentity           0062b5a0     <common>
 0003:001b95a4       _fofs_vw_index             0062b5a4     <common>
 0003:001b95a8       _fofs_hide_players         0062b5a8     <common>
 0003:001b95ac       _fofs_visibility           0062b5ac     <common>
 0003:001b95b0       _fofs_client_time          0062b5b0     <common>
 0003:001b95b4       _fofs_trackent             0062b5b4     <common>
 0003:001b95b8       _fofs_attack_finished      0062b5b8     <common>
 0003:001b95c0       _demo                      0062b5c0     <common>
 0003:004fab20       __localinfo_               0096cb20     <common>
 0003:004faf40       _sv                        0096cf40     <common>
 0003:00545a00       _svs                       009b7a00     <common>
 0003:029e1f20       _QTV_cmd                   02e53f20     <common>
 0003:029e2f20       _singledest                02e54f20     <common>
 0003:029e2f24       _pr_depth                  02e54f24     <common>
 0003:029e2f40       _localstack                02e54f40     <common>
 0003:029e4f40       _pr_xstatement             02e56f40     <common>
 0003:029e4f60       _pr_stack                  02e56f60     <common>
 0003:029e5060       _pr_strtbl                 02e57060     <common>
 0003:029e6060       _localstack_used           02e58060     <common>
 0003:029e6064       _num_prstr                 02e58064     <common>
 0003:029e6068       _pr_argc                   02e58068     <common>
 0003:029e606c       _pr_trace                  02e5806c     <common>
 0003:029e6070       _pr_xfunction              02e58070     <common>
 0003:029e6080       _pr_newstrtbl              02e58080     <common>
 0003:029e7080       _GE_ClientCommand          02e59080     <common>
 0003:029e7084       _pr_functions              02e59084     <common>
 0003:029e7088       _mod_SpectatorConnect      02e59088     <common>
 0003:029e708c       _mod_ChatMessage           02e5908c     <common>
 0003:029e7090       _mod_ConsoleCmd            02e59090     <common>
 0003:029e7094       _mod_SpectatorDisconnect   02e59094     <common>
 0003:029e7098       _GE_PausedTic              02e59098     <common>
 0003:029e709c       _GE_ShouldPause            02e5909c     <common>
 0003:029e70a0       _mod_UserCmd               02e590a0     <common>
 0003:029e70a4       _mod_SpectatorThink        02e590a4     <common>
 0003:029e70a8       _pr_fielddefs              02e590a8     <common>
 0003:029e70ac       _mod_localinfoChanged      02e590ac     <common>
 0003:029e70b0       _progs                     02e590b0     <common>
 0003:029e70b4       _mod_UserInfo_Changed      02e590b4     <common>
 0003:029e70b8       _pr_statements             02e590b8     <common>
 0003:029e70bc       _pr_globaldefs             02e590bc     <common>
 0003:029e70c0       _pr_strings                02e590c0     <common>
 0003:029e70e0       _pr_fieldoffsetpatch       02e590e0     <common>
 0003:029e7288       _pr_nqprogs                02e59288     <common>
 0003:029e72a0       _pr_globaloffsetpatch      02e592a0     <common>
 0003:029e7398       _pr_edict_size             02e59398     <common>
 0003:029e739c       _pr_global_struct          02e5939c     <common>
 0003:029e73a0       _pr_globals                02e593a0     <common>
 0003:029e73c0       _pr_string_buf             02e593c0     <common>
 0003:02a073c0       _profile_funcs             02e793c0     <common>
 0003:02a173c0       _num_profile_func          02e893c0     <common>
 0003:02a173c4       _gamedata                  02e893c4     <common>
 0003:02a173c8       _fields                    02e893c8     <common>
 0003:02a173e0       _pr2_fopen_files           02e893e0     <common>
 0003:02a17c20       _pr2_ent_data_ptr          02e89c20     <common>
 0003:02a17c40       _movevars                  02e89c40     <common>
 0003:02a17c80       _pmove                     02e89c80     <common>
 0003:02a188f0       _net_from                  02e8a8f0     <common>
 0003:02a18900       _net_local_sv_tcpipadr     02e8a900     <common>
 0003:02a18910       _net_local_sv_ipadr        02e8a910     <common>
 0003:02a18920       _winsockdata               02e8a920     <common>
 0003:02a18ac0       _net_message               02e8aac0     <common>
 0003:02a18ad4       __mathlib_temp_float2      02e8aad4     <common>
 0003:02a18ad8       __mathlib_temp_float1      02e8aad8     <common>
 0003:02a18adc       __mathlib_temp_int1        02e8aadc     <common>
 0003:02a18ae0       _fs_gamedir                02e8aae0     <common>
 0003:02a18b60       _msg_readcount             02e8ab60     <common>
 0003:02a18b80       _nullcmd                   02e8ab80     <common>
 0003:02a18b98       _msg_badread               02e8ab98     <common>
 0003:02a18b9c       _com_argc                  02e8ab9c     <common>
 0003:02a18ba0       _com_argv                  02e8aba0     <common>
 0003:02a18bc0       _com_token                 02e8abc0     <common>
 0003:02a18fc0       _cbuf_main                 02e8afc0     <common>
 0003:02a28fd0       ?_OptionsStorage@?1??__local_stdio_printf_options@@9@9 02e9afd0     <common>
 0003:02a28fd8       ?_OptionsStorage@?1??__local_stdio_scanf_options@@9@9 02e9afd8     <common>

 entry point at        0001:00000740

 Static symbols

 0000:fd541000       .debug$S                   00400000     wsock32:WSOCK32.dll
 0000:fd541000       .debug$S                   00400000     wsock32:WSOCK32.dll
 0000:fd541000       .debug$S                   00400000     wsock32:WSOCK32.dll
 0000:fd541000       .debug$S                   00400000     wsock32:WSOCK32.dll
 0000:fd541000       .debug$S                   00400000     ucrtd:ucrtbased.dll
 0000:fd541000       .debug$S                   00400000     ucrtd:ucrtbased.dll
 0000:fd541000       .debug$S                   00400000     ucrtd:ucrtbased.dll
 0000:fd541000       .debug$S                   00400000     ucrtd:ucrtbased.dll
 0000:fd541000       .debug$S                   00400000     ucrtd:ucrtbased.dll
 0000:fd541000       .debug$S                   00400000     ucrtd:ucrtbased.dll
 0000:fd541000       .debug$S                   00400000     ucrtd:ucrtbased.dll
 0000:fd541000       .debug$S                   00400000     ucrtd:ucrtbased.dll
 0000:fd541000       .debug$S                   00400000     ucrtd:ucrtbased.dll
 0000:fd541000       .debug$S                   00400000     vcruntimed:VCRUNTIME140D.dll
 0000:fd541000       .debug$S                   00400000     vcruntimed:VCRUNTIME140D.dll
 0000:fd541000       .debug$S                   00400000     vcruntimed:VCRUNTIME140D.dll
 0000:fd541000       .debug$S                   00400000     wsock32:WSOCK32.dll
 0000:fd541000       .debug$S                   00400000     wsock32:WSOCK32.dll
 0000:fd541000       .debug$S                   00400000     wsock32:WSOCK32.dll
 0000:fd541000       .debug$S                   00400000     wsock32:WSOCK32.dll
 0000:fd541000       .debug$S                   00400000     wsock32:WSOCK32.dll
 0000:fd541000       .debug$S                   00400000     wsock32:WSOCK32.dll
 0000:fd541000       .debug$S                   00400000     wsock32:WSOCK32.dll
 0000:fd541000       .debug$S                   00400000     wsock32:WSOCK32.dll
 0000:fd541000       .debug$S                   00400000     wsock32:WSOCK32.dll
 0000:fd541000       .debug$S                   00400000     wsock32:WSOCK32.dll
 0000:fd541000       .debug$S                   00400000     wsock32:WSOCK32.dll
 0000:fd541000       .debug$S                   00400000     wsock32:WSOCK32.dll
 0000:fd541000       .debug$S                   00400000     wsock32:WSOCK32.dll
 0000:fd541000       .debug$S                   00400000     wsock32:WSOCK32.dll
 0000:fd541000       .debug$S                   00400000     wsock32:WSOCK32.dll
 0000:fd541000       .debug$S                   00400000     wsock32:WSOCK32.dll
 0000:fd541000       .debug$S                   00400000     wsock32:WSOCK32.dll
 0000:fd541000       .debug$S                   00400000     wsock32:WSOCK32.dll
 0000:fd541000       .debug$S                   00400000     wsock32:WSOCK32.dll
 0000:fd541000       .debug$S                   00400000     wsock32:WSOCK32.dll
 0000:fd541000       .debug$S                   00400000     wsock32:WSOCK32.dll
 0000:fd541000       .debug$S                   00400000     winmm:WINMM.dll
 0000:fd541000       .debug$S                   00400000     winmm:WINMM.dll
 0000:fd541000       .debug$S                   00400000     kernel32:KERNEL32.dll
 0000:fd541000       .debug$S                   00400000     kernel32:KERNEL32.dll
 0000:fd541000       .debug$S                   00400000     kernel32:KERNEL32.dll
 0000:fd541000       .debug$S                   00400000     kernel32:KERNEL32.dll
 0000:fd541000       .debug$S                   00400000     kernel32:KERNEL32.dll
 0000:fd541000       .debug$S                   00400000     kernel32:KERNEL32.dll
 0000:fd541000       .debug$S                   00400000     kernel32:KERNEL32.dll
 0000:fd541000       .debug$S                   00400000     kernel32:KERNEL32.dll
 0000:fd541000       .debug$S                   00400000     kernel32:KERNEL32.dll
 0000:fd541000       .debug$S                   00400000     kernel32:KERNEL32.dll
 0000:fd541000       .debug$S                   00400000     kernel32:KERNEL32.dll
 0000:fd541000       .debug$S                   00400000     kernel32:KERNEL32.dll
 0000:fd541000       .debug$S                   00400000     kernel32:KERNEL32.dll
 0000:fd541000       .debug$S                   00400000     kernel32:KERNEL32.dll
 0000:fd541000       .debug$S                   00400000     kernel32:KERNEL32.dll
 0000:fd541000       .debug$S                   00400000     kernel32:KERNEL32.dll
 0000:fd541000       .debug$S                   00400000     kernel32:KERNEL32.dll
 0000:fd541000       .debug$S                   00400000     kernel32:KERNEL32.dll
 0000:fd541000       .debug$S                   00400000     libcurl:libcurl.dll
 0000:fd541000       .debug$S                   00400000     libcurl:libcurl.dll
 0000:fd541000       .debug$S                   00400000     libcurl:libcurl.dll
 0000:fd541000       .debug$S                   00400000     libcurl:libcurl.dll
 0000:fd541000       .debug$S                   00400000     libcurl:libcurl.dll
 0000:fd541000       .debug$S                   00400000     libcurl:libcurl.dll
 0000:fd541000       .debug$S                   00400000     libcurl:libcurl.dll
 0000:fd541000       .debug$S                   00400000     libcurl:libcurl.dll
 0000:fd541000       .debug$S                   00400000     libcurl:libcurl.dll
 0000:fd541000       .debug$S                   00400000     libcurl:libcurl.dll
 0000:fd541000       .debug$S                   00400000     libcurl:libcurl.dll
 0000:fd541000       .debug$S                   00400000     libcurl:libcurl.dll
 0000:fd541000       .debug$S                   00400000     libcurl:libcurl.dll
 0000:fd541000       .debug$S                   00400000     libcurl:libcurl.dll
 0000:fd541000       .debug$S                   00400000     kernel32:KERNEL32.dll
 0000:fd541000       .debug$S                   00400000     kernel32:KERNEL32.dll
 0000:fd541000       .debug$S                   00400000     kernel32:KERNEL32.dll
 0000:fd541000       .debug$S                   00400000     kernel32:KERNEL32.dll
 0000:fd541000       .debug$S                   00400000     kernel32:KERNEL32.dll
 0000:fd541000       .debug$S                   00400000     kernel32:KERNEL32.dll
 0000:fd541000       .debug$S                   00400000     kernel32:KERNEL32.dll
 0000:fd541000       .debug$S                   00400000     kernel32:KERNEL32.dll
 0000:fd541000       .debug$S                   00400000     kernel32:KERNEL32.dll
 0000:fd541000       .debug$S                   00400000     vcruntimed:VCRUNTIME140D.dll
 0000:fd541000       .debug$S                   00400000     vcruntimed:VCRUNTIME140D.dll
 0000:fd541000       .debug$S                   00400000     vcruntimed:VCRUNTIME140D.dll
 0000:fd541000       .debug$S                   00400000     vcruntimed:VCRUNTIME140D.dll
 0000:fd541000       .debug$S                   00400000     vcruntimed:VCRUNTIME140D.dll
 0000:fd541000       .debug$S                   00400000     vcruntimed:VCRUNTIME140D.dll
 0000:fd541000       .debug$S                   00400000     ucrtd:ucrtbased.dll
 0000:fd541000       .debug$S                   00400000     ucrtd:ucrtbased.dll
 0000:fd541000       .debug$S                   00400000     ucrtd:ucrtbased.dll
 0000:fd541000       .debug$S                   00400000     ucrtd:ucrtbased.dll
 0000:fd541000       .debug$S                   00400000     ucrtd:ucrtbased.dll
 0000:fd541000       .debug$S                   00400000     ucrtd:ucrtbased.dll
 0000:fd541000       .debug$S                   00400000     ucrtd:ucrtbased.dll
 0000:fd541000       .debug$S                   00400000     ucrtd:ucrtbased.dll
 0000:fd541000       .debug$S                   00400000     ucrtd:ucrtbased.dll
 0000:fd541000       .debug$S                   00400000     ucrtd:ucrtbased.dll
 0000:fd541000       .debug$S                   00400000     ucrtd:ucrtbased.dll
 0000:fd541000       .debug$S                   00400000     ucrtd:ucrtbased.dll
 0000:fd541000       .debug$S                   00400000     ucrtd:ucrtbased.dll
 0000:fd541000       .debug$S                   00400000     ucrtd:ucrtbased.dll
 0000:fd541000       .debug$S                   00400000     ucrtd:ucrtbased.dll
 0000:fd541000       .debug$S                   00400000     ucrtd:ucrtbased.dll
 0000:fd541000       .debug$S                   00400000     ucrtd:ucrtbased.dll
 0000:fd541000       .debug$S                   00400000     ucrtd:ucrtbased.dll
 0000:fd541000       .debug$S                   00400000     ucrtd:ucrtbased.dll
 0000:fd541000       .debug$S                   00400000     ucrtd:ucrtbased.dll
 0000:fd541000       .debug$S                   00400000     ucrtd:ucrtbased.dll
 0000:fd541000       .debug$S                   00400000     ucrtd:ucrtbased.dll
 0000:fd541000       .debug$S                   00400000     ucrtd:ucrtbased.dll
 0000:fd541000       .debug$S                   00400000     ucrtd:ucrtbased.dll
 0000:fd541000       .debug$S                   00400000     ucrtd:ucrtbased.dll
 0000:fd541000       .debug$S                   00400000     ucrtd:ucrtbased.dll
 0000:fd541000       .debug$S                   00400000     ucrtd:ucrtbased.dll
 0000:fd541000       .debug$S                   00400000     ucrtd:ucrtbased.dll
 0000:fd541000       .debug$S                   00400000     ucrtd:ucrtbased.dll
 0000:fd541000       .debug$S                   00400000     ucrtd:ucrtbased.dll
 0000:fd541000       .debug$S                   00400000     ucrtd:ucrtbased.dll
 0000:fd541000       .debug$S                   00400000     ucrtd:ucrtbased.dll
 0000:fd541000       .debug$S                   00400000     ucrtd:ucrtbased.dll
 0000:fd541000       .debug$S                   00400000     ucrtd:ucrtbased.dll
 0000:fd541000       .debug$S                   00400000     ucrtd:ucrtbased.dll
 0000:fd541000       .debug$S                   00400000     ucrtd:ucrtbased.dll
 0000:fd541000       .debug$S                   00400000     ucrtd:ucrtbased.dll
 0000:fd541000       .debug$S                   00400000     ucrtd:ucrtbased.dll
 0000:fd541000       .debug$S                   00400000     ucrtd:ucrtbased.dll
 0000:fd541000       .debug$S                   00400000     ucrtd:ucrtbased.dll
 0000:fd541000       .debug$S                   00400000     ucrtd:ucrtbased.dll
 0000:fd541000       .debug$S                   00400000     ucrtd:ucrtbased.dll
 0000:fd541000       .debug$S                   00400000     ucrtd:ucrtbased.dll
 0000:fd541000       .debug$S                   00400000     ucrtd:ucrtbased.dll
 0000:fd541000       .debug$S                   00400000     ucrtd:ucrtbased.dll
 0000:fd541000       .debug$S                   00400000     ucrtd:ucrtbased.dll
 0000:fd541000       .debug$S                   00400000     ucrtd:ucrtbased.dll
 0000:fd541000       .debug$S                   00400000     ucrtd:ucrtbased.dll
 0000:fd541000       .debug$S                   00400000     ucrtd:ucrtbased.dll
 0000:fd541000       .debug$S                   00400000     ucrtd:ucrtbased.dll
 0000:fd541000       .debug$S                   00400000     ucrtd:ucrtbased.dll
 0000:fd541000       .debug$S                   00400000     ucrtd:ucrtbased.dll
 0000:fd541000       .debug$S                   00400000     ucrtd:ucrtbased.dll
 0000:fd541000       .debug$S                   00400000     ucrtd:ucrtbased.dll
 0000:fd541000       .debug$S                   00400000     ucrtd:ucrtbased.dll
 0000:fd541000       .debug$S                   00400000     ucrtd:ucrtbased.dll
 0000:fd541000       .debug$S                   00400000     ucrtd:ucrtbased.dll
 0000:fd541000       .debug$S                   00400000     ucrtd:ucrtbased.dll
 0000:fd541000       .debug$S                   00400000     ucrtd:ucrtbased.dll
 0000:fd541000       .debug$S                   00400000     ucrtd:ucrtbased.dll
 0000:fd541000       .debug$S                   00400000     ucrtd:ucrtbased.dll
 0000:fd541000       .debug$S                   00400000     ucrtd:ucrtbased.dll
 0000:fd541000       .debug$S                   00400000     ucrtd:ucrtbased.dll
 0000:fd541000       .debug$S                   00400000     ucrtd:ucrtbased.dll
 0000:fd541000       .debug$S                   00400000     ucrtd:ucrtbased.dll
 0000:fd541000       .debug$S                   00400000     ucrtd:ucrtbased.dll
 0000:fd541000       .debug$S                   00400000     ucrtd:ucrtbased.dll
 0000:fd541000       .debug$S                   00400000     ucrtd:ucrtbased.dll
 0000:fd541000       .debug$S                   00400000     ucrtd:ucrtbased.dll
 0000:fd541000       .debug$S                   00400000     ucrtd:ucrtbased.dll
 0000:fd541000       .debug$S                   00400000     ucrtd:ucrtbased.dll
 0000:fd541000       .debug$S                   00400000     ucrtd:ucrtbased.dll
 0000:fd541000       .debug$S                   00400000     ucrtd:ucrtbased.dll
 0000:fd541000       .debug$S                   00400000     ucrtd:ucrtbased.dll
 0000:fd541000       .debug$S                   00400000     ucrtd:ucrtbased.dll
 0000:fd541000       .debug$S                   00400000     ucrtd:ucrtbased.dll
 0000:fd541000       .debug$S                   00400000     kernel32:KERNEL32.dll
 0000:fd541000       .debug$S                   00400000     kernel32:KERNEL32.dll
 0001:00000380       ?pre_c_initialization@@YAHXZ 00401380 f   MSVCRTD:exe_main.obj
 0001:00000430       ?post_pgo_initialization@@YAHXZ 00401430 f   MSVCRTD:exe_main.obj
 0001:00000440       ?pre_cpp_initialization@@YAXXZ 00401440 f   MSVCRTD:exe_main.obj
 0001:00000460       ?__scrt_common_main@@YAHXZ 00401460 f   MSVCRTD:exe_main.obj
 0001:00000470       ?__scrt_common_main_seh@@YAHXZ 00401470 f   MSVCRTD:exe_main.obj
 0001:000006c0       ?invoke_main@@YAHXZ        004016c0 f   MSVCRTD:exe_main.obj
 0001:000007c0       ?find_pe_section@@YAPAU_IMAGE_SECTION_HEADER@@QAEI@Z 004017c0 f   MSVCRTD:utility.obj
 0001:00000850       ?is_potentially_valid_image_base@@YA_NQAX@Z 00401850 f   MSVCRTD:utility.obj
 0001:00000c90       ___get_entropy             00401c90 f   MSVCRTD:gs_support.obj
 0001:00001eb0       _Web_PostFileRequest_f     00402eb0 f   central.obj
 0001:00002160       _Web_PostRequest_f         00403160 f   central.obj
 0001:00002190       _Web_GetRequest_f          00403190 f   central.obj
 0001:000021c0       _utf_encode_string         004031c0 f   central.obj
 0001:00002240       _Web_SendRequest           00403240 f   central.obj
 0001:00002360       _Web_AddParametersToRequest 00403360 f   central.obj
 0001:000025a0       _Web_ConstructURL          004035a0 f   central.obj
 0001:00002840       _Web_SubmitRequestForm     00403840 f   central.obj
 0001:00003210       _ProcessWebResponse        00404210 f   central.obj
 0001:000033c0       _CheckFileExists           004043c0 f   central.obj
 0001:000033f0       _utf8Encode                004043f0 f   central.obj
 0001:00003cc0       _is_numeric                00404cc0 f   cmd.obj
 0001:000043b0       _Cmd_CmdList_f             004053b0 f   cmd.obj
 0001:000044e0       _Cmd_CommandCompare        004054e0 f   cmd.obj
 0001:000065c0       _CM_BuildPHS               004075c0 f   cmodel.obj
 0001:000067d0       _CM_BuildPVSBSP2           004077d0 f   cmodel.obj
 0001:00006940       _CM_BuildPVS29a            00407940 f   cmodel.obj
 0001:00006ab0       _CM_BuildPVS               00407ab0 f   cmodel.obj
 0001:00006c20       _DecompressVis             00407c20 f   cmodel.obj
 0001:00006cb0       _CM_LoadPlanes             00407cb0 f   cmodel.obj
 0001:00006d80       _CM_MakeHull0              00407d80 f   cmodel.obj
 0001:00006e60       _CM_LoadClipnodesBSP2      00407e60 f   cmodel.obj
 0001:00006ef0       _CM_LoadClipnodes          00407ef0 f   cmodel.obj
 0001:00006f70       _CM_LoadLeafsBSP2          00407f70 f   cmodel.obj
 0001:00007010       _CM_LoadLeafs29a           00408010 f   cmodel.obj
 0001:000070a0       _CM_LoadLeafs              004080a0 f   cmodel.obj
 0001:00007140       _CM_LoadNodesBSP2          00408140 f   cmodel.obj
 0001:00007240       _CM_LoadNodes29a           00408240 f   cmodel.obj
 0001:00007330       _CM_LoadNodes              00408330 f   cmodel.obj
 0001:00007430       _CM_SetParent              00408430 f   cmodel.obj
 0001:00007460       _CM_LoadSubmodels          00408460 f   cmodel.obj
 0001:000076b0       _CM_LoadEntities           004086b0 f   cmodel.obj
 0001:00007790       _FindTouchedLeafs_r        00408790 f   cmodel.obj
 0001:00007b00       $LN45                      00408b00     cmodel.obj
 0001:00007b80       _AddToFatPVS_r             00408b80 f   cmodel.obj
 0001:00008470       _CM_InitBoxHull            00409470 f   cmodel.obj
 0001:00008880       _Q_normalizetext_Init      00409880 f   common.obj
 0001:00008990       _Q_glob_match_after_star   00409990 f   common.obj
 0001:00008e50       __Info_Free                00409e50 f   common.obj
 0001:00008ee0       __Info_Get                 00409ee0 f   common.obj
 0001:00008f30       _Info_HashKey              00409f30 f   common.obj
 0001:0000add0       _Cvar_CvarList_f           0040bdd0 f   cvar.obj
 0001:0000af10       _Cvar_CvarCompare          0040bf10 f   cvar.obj
 0001:0000b630       _FS_LoadFile               0040c630 f   fs.obj
 0001:0000bc34       $LN36                      0040cc34     fs.obj
 0001:0000c090       _FS_AddGameDirectory       0040d090 f   fs.obj
 0001:0000c220       _FS_AddPathHandle          0040d220 f   fs.obj
 0001:0000c2a0       _FS_AddDataFiles           0040d2a0 f   fs.obj
 0001:0000c4f0       _FS_AddWildDataFiles       0040d4f0 f   fs.obj
 0001:0000c860       _FS_RebuildFSHash          0040d860 f   fs.obj
 0001:0000c9b0       _FS_GetCleanPath           0040d9b0 f   fs.obj
 0001:0000ca70       _FS_Path_f                 0040da70 f   fs.obj
 0001:0000cde0       _FSOS_EnumerateFiles       0040dde0 f   vfs_os.obj
 0001:0000ce50       _FSOS_FLocate              0040de50 f   vfs_os.obj
 0001:0000cf60       _FSOS_BuildHash            0040df60 f   vfs_os.obj
 0001:0000cf80       _FSOS_RebuildFSHash        0040df80 f   vfs_os.obj
 0001:0000d020       _FSOS_ClosePath            0040e020 f   vfs_os.obj
 0001:0000d040       _FSOS_PrintPath            0040e040 f   vfs_os.obj
 0001:0000d0d0       _VFSOS_Close               0040e0d0 f   vfs_os.obj
 0001:0000d0f0       _VFSOS_GetSize             0040e0f0 f   vfs_os.obj
 0001:0000d130       _VFSOS_Tell                0040e130 f   vfs_os.obj
 0001:0000d150       _VFSOS_Seek                0040e150 f   vfs_os.obj
 0001:0000d170       _VFSOS_WriteBytes          0040e170 f   vfs_os.obj
 0001:0000d190       _VFSOS_ReadBytes           0040e190 f   vfs_os.obj
 0001:0000d340       _FSPAK_LoadPackFile        0040e340 f   vfs_pak.obj
 0001:0000d530       _FSPAK_EnumerateFiles      0040e530 f   vfs_pak.obj
 0001:0000d620       _FSPAK_FLocate             0040e620 f   vfs_pak.obj
 0001:0000d710       _FSPAK_BuildHash           0040e710 f   vfs_pak.obj
 0001:0000d810       _FSPAK_ClosePath           0040e810 f   vfs_pak.obj
 0001:0000d880       _FSPAK_PrintPath           0040e880 f   vfs_pak.obj
 0001:0000d8b0       _FSPAK_OpenVFS             0040e8b0 f   vfs_pak.obj
 0001:0000d9e0       _VFSPAK_Close              0040e9e0 f   vfs_pak.obj
 0001:0000da50       _VFSPAK_GetLen             0040ea50 f   vfs_pak.obj
 0001:0000da60       _VFSPAK_Tell               0040ea60 f   vfs_pak.obj
 0001:0000da70       _VFSPAK_Seek               0040ea70 f   vfs_pak.obj
 0001:0000dae0       _VFSPAK_WriteBytes         0040eae0 f   vfs_pak.obj
 0001:0000daf0       _VFSPAK_ReadBytes          0040eaf0 f   vfs_pak.obj
 0001:0000e8d0       $LN22                      0040f8d0     mathlib.obj
 0001:0000e960       _Decode                    0040f960 f   md4.obj
 0001:0000e9a0       _Encode                    0040f9a0 f   md4.obj
 0001:0000e9e0       _MD4Transform              0040f9e0 f   md4.obj
 0001:00010600       _sv_tcp_connection_free    00411600 f   net.obj
 0001:00010730       _NET_StringToSockaddr      00411730 f   net.obj
 0001:00012340       _PM_SpectatorMove          00413340 f   pmove.obj
 0001:000127a0       _PM_NudgePosition          004137a0 f   pmove.obj
 0001:00012970       _PM_CheckWaterJump         00413970 f   pmove.obj
 0001:00012b00       _PM_CheckJump              00413b00 f   pmove.obj
 0001:00012f50       _PM_AirMove                00413f50 f   pmove.obj
 0001:000135e0       _PM_FlyMove                004145e0 f   pmove.obj
 0001:000137a0       _PM_WaterMove              004147a0 f   pmove.obj
 0001:000139a0       _PM_AirAccelerate          004149a0 f   pmove.obj
 0001:00013b70       _PM_Accelerate             00414b70 f   pmove.obj
 0001:00013c40       _PM_Friction               00414c40 f   pmove.obj
 0001:00013ee0       _PM_StepSlideMove          00414ee0 f   pmove.obj
 0001:000143e0       _PM_SlideMove              004153e0 f   pmove.obj
 0001:00014950       _PM_ClipVelocity           00415950 f   pmove.obj
 0001:00014a10       _PM_AddTouchedEnt          00415a10 f   pmove.obj
 0001:00014a40       _PM_CullTraceBox           00415a40 f   pmovetst.obj
 0001:00014b10       _PM_TraceBounds            00415b10 f   pmovetst.obj
 0001:000170b0       _GetFileList_Compare       004180b0 f   pr2_cmds.obj
 0001:00017584       $LN85                      00418584     pr2_cmds.obj
 0001:00018138       $LN183                     00419138     pr2_cmds.obj
 0001:00018be0       _Write_GetClient           00419be0 f   pr2_cmds.obj
 0001:00018c98       $LN13                      00419c98     pr2_cmds.obj
 0001:0001c490       _time                      0041d490 f   pr2_cmds.obj
 0001:0001c4a0       _localtime                 0041d4a0 f   pr2_cmds.obj
 0001:0001dce8       $LN129                     0041ece8     pr2_vm.obj
 0001:0001e15c       $LN52                      0041f15c     pr2_vm.obj
 0001:0001e168       $LN48                      0041f168     pr2_vm.obj
 0001:0001ef30       _PF_checkextension         0041ff30 f   pr_cmds.obj
 0001:0001f0e0       _PF_cvar_string            004200e0 f   pr_cmds.obj
 0001:0001f1b0       _PF_randomvec              004201b0 f   pr_cmds.obj
 0001:0001f290       _PF_tracebox               00420290 f   pr_cmds.obj
 0001:0001f5f0       _PF_pow                    004205f0 f   pr_cmds.obj
 0001:000207b0       _NQP_Process               004217b0 f   pr_cmds.obj
 0001:00020df4       $LN204                     00421df4     pr_cmds.obj
 0001:00020e08       $LN190                     00421e08     pr_cmds.obj
 0001:00020e20       _NQP_Skip                  00421e20 f   pr_cmds.obj
 0001:00020e50       _NQP_Flush                 00421e50 f   pr_cmds.obj
 0001:00020ef0       _Write_GetClient           00421ef0 f   pr_cmds.obj
 0001:00020fb4       $LN13                      00421fb4     pr_cmds.obj
 0001:00021720       _PF_precache_vwep_model    00422720 f   pr_cmds.obj
 0001:00021d50       _PF_findradius             00422d50 f   pr_cmds.obj
 0001:00022b20       _PF_checkclient            00423b20 f   pr_cmds.obj
 0001:00023600       _PF_particle               00424600 f   pr_cmds.obj
 0001:00023d10       _PF_setmodel               00424d10 f   pr_cmds.obj
 0001:000242d0       _time                      004252d0 f   pr_cmds.obj
 0001:000242e0       _localtime                 004252e0 f   pr_cmds.obj
 0001:000248c4       $LN69                      004258c4     pr_edict.obj
 0001:00025104       $LN20                      00426104     pr_edict.obj
 0001:00025264       $LN17                      00426264     pr_edict.obj
 0001:00027830       $LN128                     00428830     pr_exec.obj
 0001:000278dc       $LN111                     004288dc     pr_exec.obj
 0001:00027b30       _bin2hex                   00428b30 f   sha1.obj
 0001:00027b70       _SHA1Final                 00428b70 f   sha1.obj
 0001:00027d00       _SHA1Update                00428d00 f   sha1.obj
 0001:00027db0       _SHA1Init                  00428db0 f   sha1.obj
 0001:00027df0       _SHA1Transform             00428df0 f   sha1.obj
 0001:0002c3dc       $LN23                      0042d3dc     sv_ccmds.obj
 0001:0002c3f8       $LN21                      0042d3f8     sv_ccmds.obj
 0001:0002cb80       _MVD_Init                  0042db80 f   sv_demo.obj
 0001:0002fc90       _SV_WriteRecordMVDStatsMessage 00430c90 f   sv_demo.obj
 0001:0002fd10       _SV_WriteRecordMVDMessage  00430d10 f   sv_demo.obj
 0001:00030120       _SV_AddLastDemo            00431120 f   sv_demo.obj
 0001:00030230       _SV_InitRecordFile         00431230 f   sv_demo.obj
 0001:00030580       _SV_MVDWritePacketsEx      00431580 f   sv_demo.obj
 0001:00030f00       _MVD_WriteMessage          00431f00 f   sv_demo.obj
 0001:00030f90       _MVD_FrameDeltaTime        00431f90 f   sv_demo.obj
 0001:00030ff0       _MVDWrite_BeginEx          00431ff0 f   sv_demo.obj
 0001:0003119c       $LN25                      0043219c     sv_demo.obj
 0001:000311b0       _DemoWrite                 004321b0 f   sv_demo.obj
 0001:00031360       _DestCloseAllFlush         00432360 f   sv_demo.obj
 0001:000319a0       _sv_demoDir_OnChange       004329a0 f   sv_demo.obj
 0001:00031cfc       $LN104                     00432cfc     sv_demo.obj
 0001:00031d70       _SV_MVDTxTNum              00432d70 f   sv_demo_misc.obj
 0001:00034970       _ReadString                00435970 f   sv_demo_qtv.obj
 0001:000349c0       _ReadShort                 004359c0 f   sv_demo_qtv.obj
 0001:00034a00       _ReadByte                  00435a00 f   sv_demo_qtv.obj
 0001:00034a20       _InitNetMsg                00435a20 f   sv_demo_qtv.obj
 0001:00034af0       _QTVcmd_QtvUserList_f      00435af0 f   sv_demo_qtv.obj
 0001:00034e50       _QTVsv_FreeUser            00435e50 f   sv_demo_qtv.obj
 0001:00034ea0       _QTVsv_NewUser             00435ea0 f   sv_demo_qtv.obj
 0001:00034f90       _QTVsv_UsersCount          00435f90 f   sv_demo_qtv.obj
 0001:00034fb0       _QTVsv_SetUser             00435fb0 f   sv_demo_qtv.obj
 0001:00034fe0       _QTVsv_UserById            00435fe0 f   sv_demo_qtv.obj
 0001:000360f8       $LN295                     004370f8     sv_demo_qtv.obj
 0001:00036108       $LN296                     00437108     sv_demo_qtv.obj
 0001:00036420       _SV_CheckQTVPort           00437420 f   sv_demo_qtv.obj
 0001:00036500       _SV_MVD_InitPendingStream  00437500 f   sv_demo_qtv.obj
 0001:00036610       _SV_InitStream             00437610 f   sv_demo_qtv.obj
 0001:000376f0       _SV_WritePlayersToClient   004386f0 f   sv_ents.obj
 0001:00038100       $LN212                     00439100     sv_ents.obj
 0001:000381a0       _SV_MVD_WritePlayersToClient 004391a0 f   sv_ents.obj
 0001:00038350       _TranslateEffects          00439350 f   sv_ents.obj
 0001:000383a0       _SV_EmitPacketEntities     004393a0 f   sv_ents.obj
 0001:000385f0       _SV_EmitNailUpdate         004395f0 f   sv_ents.obj
 0001:00038870       _SV_AddNailUpdate          00439870 f   sv_ents.obj
 0001:00038cf0       _SV_CheckModel             00439cf0 f   sv_init.obj
 0001:00038e50       _SV_SaveSpawnparms         00439e50 f   sv_init.obj
 0001:00038fd0       _SV_CreateBaseline         00439fd0 f   sv_init.obj
 0001:0003abf0       _SV_ForceClientName        0043bbf0 f   sv_login.obj
 0001:0003ae50       _SV_SuccessfulLogin        0043be50 f   sv_login.obj
 0001:0003af10       _SV_BlockedLogin           0043bf10 f   sv_login.obj
 0001:0003b570       _checklogin                0043c570 f   sv_login.obj
 0001:0003bd60       _WriteAccounts             0043cd60 f   sv_login.obj
 0001:0003be70       _validAcc                  0043ce70 f   sv_login.obj
 0001:0003e120       _PausedTic                 0043f120 f   sv_main.obj
 0001:0003e180       _SV_CheckVars              0043f180 f   sv_main.obj
 0001:0003e570       _SV_GetConsoleCommands     0043f570 f   sv_main.obj
 0001:0003e7b0       _SV_CheckTimeouts          0043f7b0 f   sv_main.obj
 0001:0003e990       _SV_ReadPackets            0043f990 f   sv_main.obj
 0001:0003f040       _SV_IPCopy                 00440040 f   sv_main.obj
 0001:0003f050       _SV_IPCompare              00440050 f   sv_main.obj
 0001:0003f070       _SV_CleanIPList            00440070 f   sv_main.obj
 0001:0003f100       _DecodeArgs                00440100 f   sv_main.obj
 0001:0003f980       $LN77                      00440980     sv_main.obj
 0001:0003f994       $LN71                      00440994     sv_main.obj
 0001:0003ff70       $LN161                     00440f70     sv_main.obj
 0001:0003ff84       $LN149                     00440f84     sv_main.obj
 0001:000405d0       _SV_WriteIP_f              004415d0 f   sv_main.obj
 0001:00040760       _SV_ListIP_f               00441760 f   sv_main.obj
 0001:00040860       _SV_RemoveIP_f             00441860 f   sv_main.obj
 0001:00040950       _SV_AddIP_f                00441950 f   sv_main.obj
 0001:00040b80       _SV_WriteIPVIP_f           00441b80 f   sv_main.obj
 0001:00040cc0       _SV_ListIPVIP_f            00441cc0 f   sv_main.obj
 0001:00040d20       _SV_RemoveIPVIP_f          00441d20 f   sv_main.obj
 0001:00040e10       _SV_AddIPVIP_f             00441e10 f   sv_main.obj
 0001:00040f10       _SV_ConnectionlessPacket   00441f10 f   sv_main.obj
 0001:00041740       _SVC_IP                    00442740 f   sv_main.obj
 0001:000417d0       _SVC_RemoteCommand         004427d0 f   sv_main.obj
 0001:00042530       _rcon_bandlim              00443530 f   sv_main.obj
 0001:000425f0       _char2int                  004435f0 f   sv_main.obj
 0001:00042620       _SVC_DirectConnect         00443620 f   sv_main.obj
 0001:00043b30       _ValidateUserInfo          00444b30 f   sv_main.obj
 0001:00043ba0       _SVC_GetChallenge          00444ba0 f   sv_main.obj
 0001:00043e20       _SVC_Ping                  00444e20 f   sv_main.obj
 0001:00043e80       _SVC_Log                   00444e80 f   sv_main.obj
 0001:00043fd0       _SV_CheckLog               00444fd0 f   sv_main.obj
 0001:00044050       _SVC_DemoListRegex         00445050 f   sv_main.obj
 0001:00044090       _SVC_DemoList              00445090 f   sv_main.obj
 0001:000440d0       _SVC_LastScores            004450d0 f   sv_main.obj
 0001:00044110       _SVC_Status                00445110 f   sv_main.obj
 0001:000443c0       _SVC_QTVUsers              004453c0 f   sv_main.obj
 0001:000446a0       _SV_FreeHeadDelayedPacket  004456a0 f   sv_main.obj
 0001:000446d0       _time                      004456d0 f   sv_main.obj
 0001:000446e0       _localtime                 004456e0 f   sv_main.obj
 0001:000446f0       _difftime                  004456f0 f   sv_main.obj
 0001:00046910       _time                      00447910 f   sv_mod_frags.obj
 0001:000484d4       $LN35                      004494d4     sv_phys.obj
 0001:000484ec       $LN32                      004494ec     sv_phys.obj
 0001:0004a4c0       _SV_SaveGameFileName       0044b4c0 f   sv_save.obj
 0001:0004b520       _SV_UpdateToReliableMessages 0044c520 f   sv_send.obj
 0001:0004cf70       $LN79                      0044df70     sv_send.obj
 0001:0004d250       _SV_PrintToClient          0044e250 f   sv_send.obj
 0001:00050120       _SV_ExecuteClientMove      00451120 f   sv_user.obj
 0001:00050220       _SV_UserSetWeaponRank      00451220 f   sv_user.obj
 0001:0005051c       $LN43                      0045151c     sv_user.obj
 0001:00050540       _AddLinksToPmove           00451540 f   sv_user.obj
 0001:000507e0       _SV_ExecuteUserCommand     004517e0 f   sv_user.obj
 0001:00050910       _SV_ExecutePRCommand       00451910 f   sv_user.obj
 0001:00051370       _Cmd_Observe_f             00452370 f   sv_user.obj
 0001:00051760       _Cmd_Join_f                00452760 f   sv_user.obj
 0001:00051b30       _SetUpClientEdict          00452b30 f   sv_user.obj
 0001:00051c20       _Cmd_ShowMapsList_f        00452c20 f   sv_user.obj
 0001:00051e20       _Cmd_AirStep_f             00452e20 f   sv_user.obj
 0001:00051fa0       _Cmd_MinPing_f             00452fa0 f   sv_user.obj
 0001:00052060       _Cmd_NoSnap_f              00453060 f   sv_user.obj
 0001:00052090       _Cmd_ShowServerinfo_f      00453090 f   sv_user.obj
 0001:000520a0       _Cmd_SetInfo_f             004530a0 f   sv_user.obj
 0001:00052800       _Cmd_Upload_f              00453800 f   sv_user.obj
 0001:000529a0       _Cmd_TechLogin_f           004539a0 f   sv_user.obj
 0001:00052b30       _Cmd_Rate_f                00453b30 f   sv_user.obj
 0001:00052bd0       _Cmd_PTrack_f              00453bd0 f   sv_user.obj
 0001:00052d50       _Cmd_Drop_f                00453d50 f   sv_user.obj
 0001:00052da0       _Cmd_Pause_f               00453da0 f   sv_user.obj
 0001:00052ec0       _Cmd_Kill_f                00453ec0 f   sv_user.obj
 0001:00052f40       _Cmd_Pings_f               00453f40 f   sv_user.obj
 0001:000536c0       _Cmd_Say_Team_f            004546c0 f   sv_user.obj
 0001:000536d0       _Cmd_Say_f                 004546d0 f   sv_user.obj
 0001:000536e0       _SV_Say                    004546e0 f   sv_user.obj
 0001:00053e40       _Cmd_StopDownload_f        00454e40 f   sv_user.obj
 0001:00054040       _Cmd_DemoDownload_f        00455040 f   sv_user.obj
 0001:00054830       _Cmd_Download_f            00455830 f   sv_user.obj
 0001:00055070       _SV_UserCleanFilename      00456070 f   sv_user.obj
 0001:000550a0       _SV_NextUpload             004560a0 f   sv_user.obj
 0001:000554f0       _OutofBandPrintf           004564f0 f   sv_user.obj
 0001:00055590       _Cmd_NextDownload_f        00456590 f   sv_user.obj
 0001:00055be0       _SV_DownloadNextFile       00456be0 f   sv_user.obj
 0001:00055db0       _Cmd_Begin_f               00456db0 f   sv_user.obj
 0001:000562e0       _SV_SpawnSpectator         004572e0 f   sv_user.obj
 0001:000563e0       _Cmd_Spawn_f               004573e0 f   sv_user.obj
 0001:00056a00       _Cmd_PreSpawn_f            00457a00 f   sv_user.obj
 0001:000570b0       _Cmd_Modellist_f           004580b0 f   sv_user.obj
 0001:000576b0       _TrimModelName             004586b0 f   sv_user.obj
 0001:000577c0       _Cmd_Soundlist_f           004587c0 f   sv_user.obj
 0001:000579d0       _Cmd_New_f                 004589d0 f   sv_user.obj
 0001:00058470       _OnChange_sv_minpitch      00459470 f   sv_user.obj
 0001:000584f0       _OnChange_sv_maxpitch      004594f0 f   sv_user.obj
 0001:00058570       _IsInetIP                  00459570 f   sv_user.obj
 0001:000585e0       _IsLocalIP                 004595e0 f   sv_user.obj
 0001:0005a9f0       $LN339                     0045b9f0     sv_user.obj
 0001:0005aa14       $LN288                     0045ba14     sv_user.obj
 0001:0005bb00       _SV_TouchLinks             0045cb00 f   world.obj
 0001:0005d920       _match                     0045e920 f   pcre.obj
 0001:0005f440       $LN1356                    00460440     pcre.obj
 0001:0005f4f4       $LN1172                    004604f4     pcre.obj
 0001:0005f548       $LN1357                    00460548     pcre.obj
 0001:0005f550       $LN1173                    00460550     pcre.obj
 0001:0005f558       $LN1358                    00460558     pcre.obj
 0001:0005f560       $LN1174                    00460560     pcre.obj
 0001:0005f568       $LN1359                    00460568     pcre.obj
 0001:0005f588       $LN1360                    00460588     pcre.obj
 0001:0005f5a8       $LN1361                    004605a8     pcre.obj
 0001:0005f5d0       _match_ref                 004605d0 f   pcre.obj
 0001:0005f650       _find_firstassertedchar    00460650 f   pcre.obj
 0001:0005f75c       $LN70                      0046075c     pcre.obj
 0001:0005f76c       $LN60                      0046076c     pcre.obj
 0001:0005f7bc       $LN71                      004607bc     pcre.obj
 0001:0005f7cc       $LN61                      004607cc     pcre.obj
 0001:0005f810       _is_startline              00460810 f   pcre.obj
 0001:0005f900       $LN56                      00460900     pcre.obj
 0001:0005f910       $LN51                      00460910     pcre.obj
 0001:0005f960       _is_anchored               00460960 f   pcre.obj
 0001:0005fa40       _compile_regex             00460a40 f   pcre.obj
 0001:0005fc80       _compile_branch            00460c80 f   pcre.obj
 0001:000616f0       $LN863                     004626f0     pcre.obj
 0001:00061720       $LN801                     00462720     pcre.obj
 0001:000617a0       $LN864                     004627a0     pcre.obj
 0001:000617b8       $LN865                     004627b8     pcre.obj
 0001:000617e8       $LN802                     004627e8     pcre.obj
 0001:0006181c       $LN866                     0046281c     pcre.obj
 0001:0006183c       $LN809                     0046283c     pcre.obj
 0001:00061890       _complete_callout          00462890 f   pcre.obj
 0001:000618c0       _auto_callout              004628c0 f   pcre.obj
 0001:000618f0       _adjust_recurse            004628f0 f   pcre.obj
 0001:00061960       _check_posix_name          00462960 f   pcre.obj
 0001:000619b0       _check_posix_syntax        004629b0 f   pcre.obj
 0001:00061a10       _could_be_empty            00462a10 f   pcre.obj
 0001:00061b40       $LN52                      00462b40     pcre.obj
 0001:00061b50       $LN47                      00462b50     pcre.obj
 0001:00061b90       $LN53                      00462b90     pcre.obj
 0001:00061b9c       $LN48                      00462b9c     pcre.obj
 0001:00061bb0       _could_be_empty_branch     00462bb0 f   pcre.obj
 0001:00061c98       $LN39                      00462c98     pcre.obj
 0001:00061ca8       $LN36                      00462ca8     pcre.obj
 0001:00061ce8       $LN40                      00462ce8     pcre.obj
 0001:00061cf4       $LN37                      00462cf4     pcre.obj
 0001:00061d00       _find_recurse              00462d00 f   pcre.obj
 0001:00061d30       _find_bracket              00462d30 f   pcre.obj
 0001:00061d80       _find_fixedlength          00462d80 f   pcre.obj
 0001:00061eb4       $LN65                      00462eb4     pcre.obj
 0001:00061ee0       $LN57                      00462ee0     pcre.obj
 0001:00061f34       $LN66                      00462f34     pcre.obj
 0001:00061f40       $LN58                      00462f40     pcre.obj
 0001:00061f50       _first_significant_code    00462f50 f   pcre.obj
 0001:00061fe8       $LN31                      00462fe8     pcre.obj
 0001:00061ffc       $LN28                      00462ffc     pcre.obj
 0001:00062050       _read_repeat_counts        00463050 f   pcre.obj
 0001:00062120       _is_counted_repeat         00463120 f   pcre.obj
 0001:000621b0       _check_escape              004631b0 f   pcre.obj
 0001:00062384       $LN52                      00463384     pcre.obj
 0001:0006239c       $LN49                      0046339c     pcre.obj
 0001:000623f0       _try_flipped               004633f0 f   pcre.obj
 0001:00062570       _byteflip                  00463570 f   pcre.obj
 0001:000634dc       $LN371                     004644dc     pcre.obj
 0001:00063500       $LN317                     00464500     pcre.obj
 0001:0006355c       $LN372                     0046455c     pcre.obj
 0001:00063580       $LN318                     00464580     pcre.obj
 0001:000635b4       $LN373                     004645b4     pcre.obj
 0001:000635dc       $LN319                     004645dc     pcre.obj
 0001:00063be0       $$000000                   00464be0     MSVCRTD:chkstk.obj
 0001:00063c10       $$000000                   00464c10     MSVCRTD:ftol3.obj
 0002:00000284       ?pre_cpp_initializer@@3P6AXXZA 00465284     MSVCRTD:exe_main.obj
 0002:00000290       ?pre_c_initializer@@3P6AHXZA 00465290     MSVCRTD:exe_main.obj
 0002:00000294       ?post_pgo_initializer@@3P6AHXZA 00465294     MSVCRTD:exe_main.obj
 0002:000002b0       _GS_ExceptionPointers      004652b0     MSVCRTD:gs_report.obj
 0002:00000c60       _cmd_null_string           00465c60     cmd.obj
 0002:00000c64       _cvar_null_string          00465c64     cvar.obj
 0002:00000de0       _crctable                  00465de0     crc.obj
 0002:00000fe0       ?sign@?1??PM_NudgePosition@@9@9 00465fe0     pmove.obj
 0002:00001130       _type_size                 00466130     pr_edict.obj
 0002:000011e0       _escapes                   004661e0     pcre.obj
 0002:00001278       _rep_max                   00466278     pcre.obj
 0002:00001280       _OP_lengths                00466280     pcre.obj
 0002:000012d4       _posix_name_lengths        004662d4     pcre.obj
 0002:000012e4       _rep_min                   004662e4     pcre.obj
 0002:000012f0       _digitab                   004662f0     pcre.obj
 0002:000013f0       _posix_class_maps          004663f0     pcre.obj
 0002:000014a0       _posix_names               004664a0     pcre.obj
 0002:0000b690       _Int32ToUInt32             00470690     MSVCRTD:ftol3.obj
 0002:0000b698       _DP2to32                   00470698     MSVCRTD:ftol3.obj
 0002:0000b6a0       _MantissaMask              004706a0     MSVCRTD:ftol3.obj
 0002:0000b6a8       _IntegerBit                004706a8     MSVCRTD:ftol3.obj
 0002:0000b6b0       _SignBit64                 004706b0     MSVCRTD:ftol3.obj
 0002:0000b6b8       _MinFP64                   004706b8     MSVCRTD:ftol3.obj
 0002:0000b6c0       _MinInt64                  004706c0     MSVCRTD:ftol3.obj
 0002:0000b6c8       _MaxInt64                  004706c8     MSVCRTD:ftol3.obj
 0002:0000b6d0       _MaxUInt64                 004706d0     MSVCRTD:ftol3.obj
 0002:0000b6d8       _MaxFP32                   004706d8     MSVCRTD:ftol3.obj
 0002:0000b6e0       _MinFP32                   004706e0     MSVCRTD:ftol3.obj
 0002:0000b6e8       _MinSubInexact             004706e8     MSVCRTD:ftol3.obj
 0002:0000b6f0       _FpExcptTable              004706f0     MSVCRTD:ftol3.obj
 0002:0000b700       _i1075                     00470700     MSVCRTD:ftol3.obj
 0002:0000b704       _i1087                     00470704     MSVCRTD:ftol3.obj
 0002:0000b708       _x0800                     00470708     MSVCRTD:ftol3.obj
 0002:0000b70c       _x17FF                     0047070c     MSVCRTD:ftol3.obj
 0002:0000b710       _CWMask                    00470710     MSVCRTD:ftol3.obj
 0002:0000bad0       __sehtable$?__scrt_common_main_seh@@YAHXZ 00470ad0     MSVCRTD:exe_main.obj
 0002:0000baf0       __sehtable$___scrt_is_nonwritable_in_current_image 00470af0     MSVCRTD:utility.obj
 0002:0000be14       .idata$6                   00470e14     wsock32:WSOCK32.dll
 0002:0000be40       .idata$6                   00470e40     winmm:WINMM.dll
 0002:0000bf72       .idata$6                   00470f72     kernel32:KERNEL32.dll
 0002:0000c0a4       .idata$6                   004710a4     libcurl:libcurl.dll
 0002:0000c0f2       .idata$6                   004710f2     vcruntimed:VCRUNTIME140D.dll
 0002:0000c506       .idata$6                   00471506     ucrtd:ucrtbased.dll
 0003:000015e8       _sv_www_checkin_period     004735e8     central.obj
 0003:00001604       _sv_www_address            00473604     central.obj
 0003:00001620       _sv_www_authkey            00473620     central.obj
 0003:0000163c       _qwm_static                0047363c     sv_mod_frags.obj
 0003:00001640       _table                     00473640     common.obj
 0003:000016a0       _chktbl                    004736a0     common.obj
 0003:00001aa0       _PADDING                   00473aa0     md4.obj
 0003:00001ae0       ?supported_extensions@?1??PF_checkextension@@9@9 00473ae0     pr_cmds.obj
 0003:00001b2c       _qtv_pendingtimeout        00473b2c     sv_demo_qtv.obj
 0003:00001b48       _std_builtins              00473b48     pr_cmds.obj
 0003:00001c94       _qtv_sayenabled            00473c94     sv_demo_qtv.obj
 0003:00001cb0       _ext_builtins              00473cb0     pr_cmds.obj
 0003:00001d70       _pr_globaloffsetpatch_nq   00473d70     pr_edict.obj
 0003:00001e68       _qtv_password              00473e68     sv_demo_qtv.obj
 0003:00001e84       _qtv_maxstreams            00473e84     sv_demo_qtv.obj
 0003:00001ea0       _qtv_streamport            00473ea0     sv_demo_qtv.obj
 0003:00001ebc       ?first@?1??Sys_DoubleTime@@9@9 00473ebc     sv_sys_win.obj
 0003:00001ec0       _ucmds                     00473ec0     sv_demo_qtv.obj
 0003:00001ee8       ?qwm_homepage@?1??SV_InitLocal@@9@9 00473ee8     sv_main.obj
 0003:00001f04       ?qws_version@?1??SV_InitLocal@@9@9 00473f04     sv_main.obj
 0003:00001f20       ?qwm_version@?1??SV_InitLocal@@9@9 00473f20     sv_main.obj
 0003:00001f3c       ?qwm_platform@?1??SV_InitLocal@@9@9 00473f3c     sv_main.obj
 0003:00001f58       ?qws_name@?1??SV_InitLocal@@9@9 00473f58     sv_main.obj
 0003:00001f74       ?qwm_name@?1??SV_InitLocal@@9@9 00473f74     sv_main.obj
 0003:00001f90       ?qws_buildnum@?1??SV_InitLocal@@9@9 00473f90     sv_main.obj
 0003:00001fac       ?qwm_buildnum@?1??SV_InitLocal@@9@9 00473fac     sv_main.obj
 0003:00001fc8       ?qwm_builddate@?1??SV_InitLocal@@9@9 00473fc8     sv_main.obj
 0003:00001fe4       ?qws_builddate@?1??SV_InitLocal@@9@9 00473fe4     sv_main.obj
 0003:00002000       ?qws_platform@?1??SV_InitLocal@@9@9 00474000     sv_main.obj
 0003:0000201c       ?qwm_fullname@?1??SV_InitLocal@@9@9 0047401c     sv_main.obj
 0003:00002038       ?qws_fullname@?1??SV_InitLocal@@9@9 00474038     sv_main.obj
 0003:00002054       ?qws_homepage@?1??SV_InitLocal@@9@9 00474054     sv_main.obj
 0003:00002070       ?up@?2??SV_RotateCmd@@9@9  00474070     sv_user.obj
 0003:00002080       _ucmds                     00474080     sv_user.obj
 0003:00002308       _pcre_default_tables       00474308     pcre.obj
 0003:00002760       _GS_ExceptionRecord        00474760     MSVCRTD:gs_report.obj
 0003:000027b0       _GS_ContextRecord          004747b0     MSVCRTD:gs_report.obj
 0003:00002a84       ?is_initialized_as_dll@@3_NA 00474a84     MSVCRTD:utility.obj
 0003:00002a85       ?module_local_atexit_table_initialized@@3_NA 00474a85     MSVCRTD:utility.obj
 0003:00002a88       ?module_local_atexit_table@@3U_onexit_table_t@@A 00474a88     MSVCRTD:utility.obj
 0003:00002a94       ?module_local_at_quick_exit_table@@3U_onexit_table_t@@A 00474a94     MSVCRTD:utility.obj
 0003:00002c7c       _isdaemon                  00474c7c     sv_sys_win.obj
 0003:00002c84       ?index1@?1??va@@9@9        00474c84     bothtools.obj
 0003:00002c88       ?string@?1??va@@9@9        00474c88     bothtools.obj
 0003:00006c88       _last_checkin_time         00478c88     central.obj
 0003:00006c90       _curl_handle               00478c90     central.obj
 0003:00006c94       _web_requests              00478c94     central.obj
 0003:00006c98       _cmd_alias                 00478c98     cmd.obj
 0003:00006c9c       _cmd_args                  00478c9c     cmd.obj
 0003:00006ca0       _cmd_alias_hash            00478ca0     cmd.obj
 0003:00006d20       ?buf@?1??Cmd_ExecuteString@@9@9 00478d20     cmd.obj
 0003:00007120       _cmd_argc                  00479120     cmd.obj
 0003:00007124       _cmd_functions             00479124     cmd.obj
 0003:00007128       ?argv_buf@?1??Cmd_TokenizeString@@9@9 00479128     cmd.obj
 0003:00007728       _cmd_hash_array            00479728     cmd.obj
 0003:000077a8       _leafs_list                004797a8     cmodel.obj
 0003:000077b0       _cmd_argv                  004797b0     cmd.obj
 0003:000078f0       _loadname                  004798f0     cmodel.obj
 0003:00007910       _box_planes                00479910     cmodel.obj
 0003:00007988       _map_vis_rowlongs          00479988     cmodel.obj
 0003:0000798c       _box_hull                  0047998c     cmodel.obj
 0003:000079b4       _leafs_maxs                004799b4     cmodel.obj
 0003:000079c0       _map_phs                   004799c0     cmodel.obj
 0003:000079c4       _cmod_base                 004799c4     cmodel.obj
 0003:000079c8       _map_planes                004799c8     cmodel.obj
 0003:000079d0       _fatpvs                    004799d0     cmodel.obj
 0003:000089d0       ?decompressed@?1??DecompressVis@@9@9 0047a9d0     cmodel.obj
 0003:000099d0       _numcmodels                0047b9d0     cmodel.obj
 0003:000099d4       _leafs_overflow            0047b9d4     cmodel.obj
 0003:000099d8       _leafs_maxcount            0047b9d8     cmodel.obj
 0003:000099dc       _leafs_mins                0047b9dc     cmodel.obj
 0003:000099e8       _fatpvs_org                0047b9e8     cmodel.obj
 0003:000099f4       _map_nodes                 0047b9f4     cmodel.obj
 0003:000099f8       _visleafs                  0047b9f8     cmodel.obj
 0003:000099fc       _leafs_topnode             0047b9fc     cmodel.obj
 0003:00009a00       _map_entitystring          0047ba00     cmodel.obj
 0003:00009a04       _map_leafs                 0047ba04     cmodel.obj
 0003:00009a08       _map_checksum2             0047ba08     cmodel.obj
 0003:00009a10       _map_cmodels               0047ba10     cmodel.obj
 0003:00022210       _numclipnodes              00494210     cmodel.obj
 0003:00022214       _leafs_count               00494214     cmodel.obj
 0003:00022218       _fatbytes                  00494218     cmodel.obj
 0003:00022220       _box_clipnodes             00494220     cmodel.obj
 0003:00022268       _map_pvs                   00494268     cmodel.obj
 0003:0002226c       _map_checksum              0049426c     cmodel.obj
 0003:00022270       _map_novis                 00494270     cmodel.obj
 0003:00023270       _map_name                  00495270     cmodel.obj
 0003:000232b0       _map_clipnodes             004952b0     cmodel.obj
 0003:000232b4       _map_vis_rowbytes          004952b4     cmodel.obj
 0003:000232b8       _map_halflife              004952b8     cmodel.obj
 0003:000232bc       _numnodes                  004952bc     cmodel.obj
 0003:000232c0       ?value@?1??Info_ValueForKey@@9@9 004952c0     common.obj
 0003:00023ac0       ?string@?1??MSG_ReadString@@9@9 00495ac0     common.obj
 0003:000242c0       ?value@?1??Info_Get@@9@9   004962c0     common.obj
 0003:00024ac0       ?string@?1??MSG_ReadStringLine@@9@9 00496ac0     common.obj
 0003:000252c0       _largv                     004972c0     common.obj
 0003:0002538c       _q_normalize_chartbl_init  0049738c     common.obj
 0003:00025390       _q_normalize_chartbl       00497390     common.obj
 0003:00025490       ?valueindex@?1??Info_ValueForKey@@9@9 00497490     common.obj
 0003:00025494       ?valueindex@?1??Info_Get@@9@9 00497494     common.obj
 0003:00025498       _cvar_vars                 00497498     cvar.obj
 0003:0002549c       ?changing@?1??Cvar_Set@@9@9 0049749c     cvar.obj
 0003:000254a0       _cvar_hash                 004974a0     cvar.obj
 0003:00025520       _fs_base_searchpaths       00497520     fs.obj
 0003:00025524       _fs_searchpaths            00497524     fs.obj
 0003:00025528       _fs_gamedirfile            00497528     fs.obj
 0003:00025568       _fs_basedir                00497568     fs.obj
 0003:000255e8       ?idx@?1??NET_AdrToString@@9@9 004975e8     net.obj
 0003:000255f0       ?s@?1??NET_BaseAdrToString@@9@9 004975f0     net.obj
 0003:000257f0       ?s@?1??NET_AdrToString@@9@9 004977f0     net.obj
 0003:000259f0       _net_message_buffer        004979f0     net.obj
 0003:000279f0       ?idx@?1??NET_BaseAdrToString@@9@9 004999f0     net.obj
 0003:000279f4       _pm_frametime              004999f4     pmove.obj
 0003:000279f8       ?last_error_time@?1??Netchan_Transmit@@9@9 004999f8     net_chan.obj
 0003:00027a00       _groundplane               00499a00     pmove.obj
 0003:00027a10       _pm_forward                00499a10     pmove.obj
 0003:00027a1c       _pm_right                  00499a1c     pmove.obj
 0003:00027a28       ?last_spawncount@?1??PF2_changelevel@@9@9 00499a28     pr2_cmds.obj
 0003:00027a2c       _checkpvs                  00499a2c     pr2_cmds.obj
 0003:00027a30       ?ov@?1??PF2_infokey@@9@9   00499a30     pr2_cmds.obj
 0003:00027b30       ?out@?1??PF_VarString@@9@9 00499b30     pr_cmds.obj
 0003:00028330       _checkpvs                  0049a330     pr_cmds.obj
 0003:00028334       _nqp_ignore_this_frame     0049a334     pr_cmds.obj
 0003:00028338       ?ov@?1??PF_infokey@@9@9    0049a338     pr_cmds.obj
 0003:00028438       _nqp_expect                0049a438     pr_cmds.obj
 0003:0002843c       _nqp_buf                   0049a43c     pr_cmds.obj
 0003:00028450       ?last_spawncount@?1??PF_changelevel@@9@9 0049a450     pr_cmds.obj
 0003:00028454       ?rep@?1??PR1_GetEdictFieldValue@@9@9 0049a454     pr_edict.obj
 0003:00028458       ?index1@?1??PR_SetTmpString@@9@9 0049a458     pr_exec.obj
 0003:00028460       _nqp_buf_data              0049a460     pr_cmds.obj
 0003:00028860       ?line@?1??PR_GlobalStringNoContents@@9@9 0049a860     pr_edict.obj
 0003:000288e0       ?line@?1??PR_UglyValueString@@9@9 0049a8e0     pr_edict.obj
 0003:000289e0       ?line@?1??PR_ValueString@@9@9 0049a9e0     pr_edict.obj
 0003:00028ae0       ?cmd_copy@?2??PR1_ClientCmd@@9@9 0049aae0     pr_edict.obj
 0003:00028b60       ?line@?1??PR_GlobalString@@9@9 0049ab60     pr_edict.obj
 0003:00028be0       ?args_copy@?2??PR1_ClientCmd@@9@9 0049abe0     pr_edict.obj
 0003:00028fe0       ?cmd_copy@?3??PR1_ClientCmd@@9@9 0049afe0     pr_edict.obj
 0003:00029060       _gefvCache                 0049b060     pr_edict.obj
 0003:000290e8       ?tmp@?1??PR_SetTmpString@@9@9 0049b0e8     pr_exec.obj
 0003:0002d0e8       ?changed@?1??SV_Map@@9@9   0049f0e8     sv_ccmds.obj
 0003:0002d0f0       _context                   0049f0f0     sha1.obj
 0003:0002d14c       ?ret@?1??bin2hex@@9@9      0049f14c     sha1.obj
 0003:0002d178       ?level@?1??SV_Map@@9@9     0049f178     sv_ccmds.obj
 0003:0002d1b8       ?expanded@?1??SV_Map@@9@9  0049f1b8     sv_ccmds.obj
 0003:0002d1f8       ?entityfile@?1??SV_Map@@9@9 0049f1f8     sv_ccmds.obj
 0003:0002d238       ?instop@?1??SV_MVDStop@@9@9 0049f238     sv_demo.obj
 0003:0002d23c       ?empty_baseline@?BD@??SV_MVD_SendInitialGamestate@@9@9 0049f23c     sv_demo.obj
 0003:0002d270       ?lastteam@?1??Dem_Team@@9@9 0049f270     sv_demo_misc.obj
 0003:0002d278       ?index1@?1??Dem_Team@@9@9  0049f278     sv_demo_misc.obj
 0003:0002d280       ?text@?1??SV_CleanName@@9@9 0049f280     sv_demo_misc.obj
 0003:0002d680       _chartbl                   0049f680     sv_demo_misc.obj
 0003:0002d780       ?lastscores@?1??SV_PrintTeams@@9@9 0049f780     sv_demo_misc.obj
 0003:0002df80       ?n@?1??Dem_PlayerNameTeam@@9@9 0049ff80     sv_demo_misc.obj
 0003:0002e380       _warned_time               004a0380     sv_demo_qtv.obj
 0003:0002e388       _listenport                004a0388     sv_demo_qtv.obj
 0003:0002e38c       ?lastdest@?1??SV_InitStream@@9@9 004a038c     sv_demo_qtv.obj
 0003:0002e390       _numnails                  004a0390     sv_ents.obj
 0003:0002e394       _nailcount                 004a0394     sv_ents.obj
 0003:0002e398       _num_accounts              004a0398     sv_login.obj
 0003:0002e3a0       _nails                     004a03a0     sv_ents.obj
 0003:0002e420       _accounts                  004a0420     sv_login.obj
 0003:0004f760       ?old_maxdlrate@?1??SV_CheckVars@@9@9 004c1760     sv_main.obj
 0003:0004f764       _host_hunklevel            004c1764     sv_main.obj
 0003:0004f768       ?vspw@?1??SV_CheckVars@@9@9 004c1768     sv_main.obj
 0003:0004f7a8       ?inerror@?1??SV_Error@@9@9 004c17a8     sv_main.obj
 0003:0004f7b0       ?string@?1??DecodeArgs@@9@9 004c17b0     sv_main.obj
 0003:0004fbb0       ?start@?1??SV_Frame@@9@9   004c1bb0     sv_main.obj
 0003:0004fbb8       ?end@?1??SV_Frame@@9@9     004c1bb8     sv_main.obj
 0003:0004fbc0       ?date@?1??SV_Write_Log@@9@9 004c1bc0     sv_main.obj
 0003:0004fc58       ?pw@?1??SV_CheckVars@@9@9  004c1c58     sv_main.obj
 0003:0004fc98       ?old_maxrate@?1??SV_CheckVars@@9@9 004c1c98     sv_main.obj
 0003:0004fc9c       ?lpackets@?1??rcon_bandlim@@9@9 004c1c9c     sv_main.obj
 0003:0004fca0       ?lticks@?1??rcon_bandlim@@9@9 004c1ca0     sv_main.obj
 0003:0004fca8       ?spw@?1??SV_CheckVars@@9@9 004c1ca8     sv_main.obj
 0003:0004fce8       ?string@?1??SV_Error@@9@9  004c1ce8     sv_main.obj
 0003:000500e8       ?extramsec@?1??SV_RunBots@@9@9 004c20e8     sv_phys.obj
 0003:000500f0       _master_adr                004c20f0     sv_master.obj
 0003:00050150       ?string2@?1??SV_DoBroadcastPrintf@@9@9 004c2150     sv_send.obj
 0003:00050550       _sv_redirectbufcount       004c2550     sv_send.obj
 0003:00050554       _argc                      004c2554     sv_sys_win.obj
 0003:00050558       ?inerror@?1??Sys_Error@@9@9 004c2558     sv_sys_win.obj
 0003:00050560       ?text@?1??Sys_ConsoleInput@@9@9 004c2560     sv_sys_win.obj
 0003:00050660       _hwtimer                   004c2660     sv_sys_win.obj
 0003:00050664       _title                     004c2664     sv_sys_win.obj
 0003:00050674       ?len@?1??Sys_ConsoleInput@@9@9 004c2674     sv_sys_win.obj
 0003:00050678       ?exename@?1??Sys_GetModuleName@@9@9 004c2678     sv_sys_win.obj
 0003:00050a78       _pfreq                     004c2a78     sv_sys_win.obj
 0003:00050a80       ?list@?1??Sys_listdir@@9@9 004c2a80     sv_sys_win.obj
 0003:00120a80       _argv                      00592a80     sv_sys_win.obj
 0003:00120b48       ?starttime@?1??Sys_DoubleTime@@9@9 00592b48     sv_sys_win.obj
 0003:00120b4c       ?empty_baseline@?BA@??Cmd_PreSpawn_f@@9@9 00592b4c     sv_user.obj
 0003:00120b80       _startcount                00592b80     sv_sys_win.obj
 0003:00120b88       ?shortn@?1??TrimModelName@@9@9 00592b88     sv_user.obj
 0003:00120bd0       _playertouch               00592bd0     sv_user.obj
 0003:00120cd0       ?str@?1??VersionStringFull@@9@9 00592cd0     build.obj
 0003:00120dd0       _w                         00592dd0     world.obj
 0004:00000120       $R000000                   02e9b120     winquake.res
 0004:00000240       $R000120                   02e9b240     winquake.res
 0004:00000368       $R000248                   02e9b368     winquake.res
 0004:00000650       $R000530                   02e9b650     winquake.res
